Archive member included to satisfy reference by file (symbol)

/sources/glibc/src/glibc-2.37/build/libc_pic.a(check_fds.os)
                              /sources/glibc/src/glibc-2.37/build/elf/dl-allobjs.os (__libc_check_standard_fds)
/sources/glibc/src/glibc-2.37/build/libc_pic.a(errno.os)
                              /sources/glibc/src/glibc-2.37/build/libc_pic.a(check_fds.os) (__libc_errno)
/sources/glibc/src/glibc-2.37/build/libc_pic.a(setjmp.os)
                              /sources/glibc/src/glibc-2.37/build/elf/dl-allobjs.os (__sigsetjmp)
/sources/glibc/src/glibc-2.37/build/libc_pic.a(__longjmp.os)
                              /sources/glibc/src/glibc-2.37/build/elf/dl-allobjs.os (__longjmp)
/sources/glibc/src/glibc-2.37/build/libc_pic.a(lowlevellock.os)
                              /sources/glibc/src/glibc-2.37/build/elf/dl-allobjs.os (__lll_lock_wait_private)
/sources/glibc/src/glibc-2.37/build/libc_pic.a(scratch_buffer_set_array_size.os)
                              /sources/glibc/src/glibc-2.37/build/elf/dl-allobjs.os (__libc_scratch_buffer_set_array_size)
/sources/glibc/src/glibc-2.37/build/libc_pic.a(memchr.os)
                              /sources/glibc/src/glibc-2.37/build/elf/dl-allobjs.os (memchr)
/sources/glibc/src/glibc-2.37/build/libc_pic.a(memcmp.os)
                              /sources/glibc/src/glibc-2.37/build/elf/dl-allobjs.os (memcmp)
/sources/glibc/src/glibc-2.37/build/libc_pic.a(memcpy.os)
                              /sources/glibc/src/glibc-2.37/build/libc_pic.a(check_fds.os) (__GI_memcpy)
/sources/glibc/src/glibc-2.37/build/libc_pic.a(memmove.os)
                              /sources/glibc/src/glibc-2.37/build/elf/dl-allobjs.os (memmove)
/sources/glibc/src/glibc-2.37/build/libc_pic.a(mempcpy.os)
                              /sources/glibc/src/glibc-2.37/build/elf/dl-allobjs.os (__mempcpy)
/sources/glibc/src/glibc-2.37/build/libc_pic.a(memset.os)
                              /sources/glibc/src/glibc-2.37/build/elf/dl-allobjs.os (memset)
/sources/glibc/src/glibc-2.37/build/libc_pic.a(rawmemchr.os)
                              /sources/glibc/src/glibc-2.37/build/elf/dl-allobjs.os (rawmemchr)
/sources/glibc/src/glibc-2.37/build/libc_pic.a(stpcpy.os)
                              /sources/glibc/src/glibc-2.37/build/elf/dl-allobjs.os (__stpcpy)
/sources/glibc/src/glibc-2.37/build/libc_pic.a(strchr.os)
                              /sources/glibc/src/glibc-2.37/build/elf/dl-allobjs.os (strchr)
/sources/glibc/src/glibc-2.37/build/libc_pic.a(strcmp.os)
                              /sources/glibc/src/glibc-2.37/build/elf/dl-allobjs.os (strcmp)
/sources/glibc/src/glibc-2.37/build/libc_pic.a(strcspn.os)
                              /sources/glibc/src/glibc-2.37/build/elf/dl-allobjs.os (strcspn)
/sources/glibc/src/glibc-2.37/build/libc_pic.a(strdup.os)
                              /sources/glibc/src/glibc-2.37/build/elf/dl-allobjs.os (__strdup)
/sources/glibc/src/glibc-2.37/build/libc_pic.a(strerrorname_np.os)
                              /sources/glibc/src/glibc-2.37/build/elf/dl-allobjs.os (strerrorname_np)
/sources/glibc/src/glibc-2.37/build/libc_pic.a(strlen.os)
                              /sources/glibc/src/glibc-2.37/build/elf/dl-allobjs.os (strlen)
/sources/glibc/src/glibc-2.37/build/libc_pic.a(strncmp.os)
                              /sources/glibc/src/glibc-2.37/build/elf/dl-allobjs.os (strncmp)
/sources/glibc/src/glibc-2.37/build/libc_pic.a(strnlen.os)
                              /sources/glibc/src/glibc-2.37/build/elf/dl-allobjs.os (strnlen)
/sources/glibc/src/glibc-2.37/build/libc_pic.a(memchr-avx2.os)
                              /sources/glibc/src/glibc-2.37/build/libc_pic.a(memchr.os) (__memchr_avx2)
/sources/glibc/src/glibc-2.37/build/libc_pic.a(memchr-avx2-rtm.os)
                              /sources/glibc/src/glibc-2.37/build/libc_pic.a(memchr.os) (__memchr_avx2_rtm)
/sources/glibc/src/glibc-2.37/build/libc_pic.a(memchr-evex.os)
                              /sources/glibc/src/glibc-2.37/build/libc_pic.a(memchr.os) (__memchr_evex)
/sources/glibc/src/glibc-2.37/build/libc_pic.a(memchr-evex-rtm.os)
                              /sources/glibc/src/glibc-2.37/build/libc_pic.a(memchr.os) (__memchr_evex_rtm)
/sources/glibc/src/glibc-2.37/build/libc_pic.a(memchr-sse2.os)
                              /sources/glibc/src/glibc-2.37/build/libc_pic.a(memchr.os) (__memchr_sse2)
/sources/glibc/src/glibc-2.37/build/libc_pic.a(memcmp-avx2-movbe.os)
                              /sources/glibc/src/glibc-2.37/build/libc_pic.a(memcmp.os) (__memcmp_avx2_movbe)
/sources/glibc/src/glibc-2.37/build/libc_pic.a(memcmp-avx2-movbe-rtm.os)
                              /sources/glibc/src/glibc-2.37/build/libc_pic.a(memcmp.os) (__memcmp_avx2_movbe_rtm)
/sources/glibc/src/glibc-2.37/build/libc_pic.a(memcmp-evex-movbe.os)
                              /sources/glibc/src/glibc-2.37/build/libc_pic.a(memcmp.os) (__memcmp_evex_movbe)
/sources/glibc/src/glibc-2.37/build/libc_pic.a(memcmp-sse2.os)
                              /sources/glibc/src/glibc-2.37/build/libc_pic.a(memcmp.os) (__memcmp_sse2)
/sources/glibc/src/glibc-2.37/build/libc_pic.a(memmove-avx-unaligned-erms.os)
                              /sources/glibc/src/glibc-2.37/build/libc_pic.a(mempcpy.os) (__mempcpy_avx_unaligned)
/sources/glibc/src/glibc-2.37/build/libc_pic.a(memmove-avx-unaligned-erms-rtm.os)
                              /sources/glibc/src/glibc-2.37/build/libc_pic.a(mempcpy.os) (__mempcpy_avx_unaligned_rtm)
/sources/glibc/src/glibc-2.37/build/libc_pic.a(memmove-avx512-no-vzeroupper.os)
                              /sources/glibc/src/glibc-2.37/build/libc_pic.a(mempcpy.os) (__mempcpy_avx512_no_vzeroupper)
/sources/glibc/src/glibc-2.37/build/libc_pic.a(memmove-avx512-unaligned-erms.os)
                              /sources/glibc/src/glibc-2.37/build/libc_pic.a(mempcpy.os) (__mempcpy_avx512_unaligned)
/sources/glibc/src/glibc-2.37/build/libc_pic.a(memmove-erms.os)
                              /sources/glibc/src/glibc-2.37/build/libc_pic.a(mempcpy.os) (__mempcpy_erms)
/sources/glibc/src/glibc-2.37/build/libc_pic.a(memmove-evex-unaligned-erms.os)
                              /sources/glibc/src/glibc-2.37/build/libc_pic.a(mempcpy.os) (__mempcpy_evex_unaligned)
/sources/glibc/src/glibc-2.37/build/libc_pic.a(memmove-sse2-unaligned-erms.os)
                              /sources/glibc/src/glibc-2.37/build/libc_pic.a(mempcpy.os) (__mempcpy_sse2_unaligned)
/sources/glibc/src/glibc-2.37/build/libc_pic.a(memmove-ssse3.os)
                              /sources/glibc/src/glibc-2.37/build/libc_pic.a(mempcpy.os) (__mempcpy_ssse3)
/sources/glibc/src/glibc-2.37/build/libc_pic.a(memset-avx2-unaligned-erms.os)
                              /sources/glibc/src/glibc-2.37/build/libc_pic.a(memset.os) (__memset_avx2_unaligned)
/sources/glibc/src/glibc-2.37/build/libc_pic.a(memset-avx2-unaligned-erms-rtm.os)
                              /sources/glibc/src/glibc-2.37/build/libc_pic.a(memset.os) (__memset_avx2_unaligned_rtm)
/sources/glibc/src/glibc-2.37/build/libc_pic.a(memset-avx512-no-vzeroupper.os)
                              /sources/glibc/src/glibc-2.37/build/libc_pic.a(memset.os) (__memset_avx512_no_vzeroupper)
/sources/glibc/src/glibc-2.37/build/libc_pic.a(memset-avx512-unaligned-erms.os)
                              /sources/glibc/src/glibc-2.37/build/libc_pic.a(memset.os) (__memset_avx512_unaligned)
/sources/glibc/src/glibc-2.37/build/libc_pic.a(memset-erms.os)
                              /sources/glibc/src/glibc-2.37/build/libc_pic.a(memset.os) (__memset_erms)
/sources/glibc/src/glibc-2.37/build/libc_pic.a(memset-evex-unaligned-erms.os)
                              /sources/glibc/src/glibc-2.37/build/libc_pic.a(memset.os) (__memset_evex_unaligned)
/sources/glibc/src/glibc-2.37/build/libc_pic.a(memset-sse2-unaligned-erms.os)
                              /sources/glibc/src/glibc-2.37/build/libc_pic.a(memset.os) (__memset_sse2_unaligned)
/sources/glibc/src/glibc-2.37/build/libc_pic.a(rawmemchr-avx2.os)
                              /sources/glibc/src/glibc-2.37/build/libc_pic.a(rawmemchr.os) (__rawmemchr_avx2)
/sources/glibc/src/glibc-2.37/build/libc_pic.a(rawmemchr-avx2-rtm.os)
                              /sources/glibc/src/glibc-2.37/build/libc_pic.a(rawmemchr.os) (__rawmemchr_avx2_rtm)
/sources/glibc/src/glibc-2.37/build/libc_pic.a(rawmemchr-evex.os)
                              /sources/glibc/src/glibc-2.37/build/libc_pic.a(rawmemchr.os) (__rawmemchr_evex)
/sources/glibc/src/glibc-2.37/build/libc_pic.a(rawmemchr-evex-rtm.os)
                              /sources/glibc/src/glibc-2.37/build/libc_pic.a(rawmemchr.os) (__rawmemchr_evex_rtm)
/sources/glibc/src/glibc-2.37/build/libc_pic.a(rawmemchr-sse2.os)
                              /sources/glibc/src/glibc-2.37/build/libc_pic.a(rawmemchr.os) (__rawmemchr_sse2)
/sources/glibc/src/glibc-2.37/build/libc_pic.a(stpcpy-avx2.os)
                              /sources/glibc/src/glibc-2.37/build/libc_pic.a(stpcpy.os) (__stpcpy_avx2)
/sources/glibc/src/glibc-2.37/build/libc_pic.a(stpcpy-avx2-rtm.os)
                              /sources/glibc/src/glibc-2.37/build/libc_pic.a(stpcpy.os) (__stpcpy_avx2_rtm)
/sources/glibc/src/glibc-2.37/build/libc_pic.a(stpcpy-evex.os)
                              /sources/glibc/src/glibc-2.37/build/libc_pic.a(stpcpy.os) (__stpcpy_evex)
/sources/glibc/src/glibc-2.37/build/libc_pic.a(stpcpy-sse2.os)
                              /sources/glibc/src/glibc-2.37/build/libc_pic.a(stpcpy.os) (__stpcpy_sse2)
/sources/glibc/src/glibc-2.37/build/libc_pic.a(stpcpy-sse2-unaligned.os)
                              /sources/glibc/src/glibc-2.37/build/libc_pic.a(stpcpy.os) (__stpcpy_sse2_unaligned)
/sources/glibc/src/glibc-2.37/build/libc_pic.a(strchr-avx2.os)
                              /sources/glibc/src/glibc-2.37/build/libc_pic.a(strchr.os) (__strchr_avx2)
/sources/glibc/src/glibc-2.37/build/libc_pic.a(strchr-avx2-rtm.os)
                              /sources/glibc/src/glibc-2.37/build/libc_pic.a(strchr.os) (__strchr_avx2_rtm)
/sources/glibc/src/glibc-2.37/build/libc_pic.a(strchr-evex.os)
                              /sources/glibc/src/glibc-2.37/build/libc_pic.a(strchr.os) (__strchr_evex)
/sources/glibc/src/glibc-2.37/build/libc_pic.a(strchr-sse2.os)
                              /sources/glibc/src/glibc-2.37/build/libc_pic.a(strchr.os) (__strchr_sse2)
/sources/glibc/src/glibc-2.37/build/libc_pic.a(strchr-sse2-no-bsf.os)
                              /sources/glibc/src/glibc-2.37/build/libc_pic.a(strchr.os) (__strchr_sse2_no_bsf)
/sources/glibc/src/glibc-2.37/build/libc_pic.a(strcmp-avx2.os)
                              /sources/glibc/src/glibc-2.37/build/libc_pic.a(strcmp.os) (__strcmp_avx2)
/sources/glibc/src/glibc-2.37/build/libc_pic.a(strcmp-avx2-rtm.os)
                              /sources/glibc/src/glibc-2.37/build/libc_pic.a(strcmp.os) (__strcmp_avx2_rtm)
/sources/glibc/src/glibc-2.37/build/libc_pic.a(strcmp-evex.os)
                              /sources/glibc/src/glibc-2.37/build/libc_pic.a(strcmp.os) (__strcmp_evex)
/sources/glibc/src/glibc-2.37/build/libc_pic.a(strcmp-sse2.os)
                              /sources/glibc/src/glibc-2.37/build/libc_pic.a(strcmp.os) (__strcmp_sse2)
/sources/glibc/src/glibc-2.37/build/libc_pic.a(strcmp-sse2-unaligned.os)
                              /sources/glibc/src/glibc-2.37/build/libc_pic.a(strcmp.os) (__strcmp_sse2_unaligned)
/sources/glibc/src/glibc-2.37/build/libc_pic.a(strcmp-sse4_2.os)
                              /sources/glibc/src/glibc-2.37/build/libc_pic.a(strcmp.os) (__strcmp_sse42)
/sources/glibc/src/glibc-2.37/build/libc_pic.a(strcspn-sse4.os)
                              /sources/glibc/src/glibc-2.37/build/libc_pic.a(strcspn.os) (__strcspn_sse42)
/sources/glibc/src/glibc-2.37/build/libc_pic.a(strlen-avx2.os)
                              /sources/glibc/src/glibc-2.37/build/libc_pic.a(strlen.os) (__strlen_avx2)
/sources/glibc/src/glibc-2.37/build/libc_pic.a(strlen-avx2-rtm.os)
                              /sources/glibc/src/glibc-2.37/build/libc_pic.a(strlen.os) (__strlen_avx2_rtm)
/sources/glibc/src/glibc-2.37/build/libc_pic.a(strlen-evex.os)
                              /sources/glibc/src/glibc-2.37/build/libc_pic.a(strlen.os) (__strlen_evex)
/sources/glibc/src/glibc-2.37/build/libc_pic.a(strlen-sse2.os)
                              /sources/glibc/src/glibc-2.37/build/libc_pic.a(strlen.os) (__strlen_sse2)
/sources/glibc/src/glibc-2.37/build/libc_pic.a(strncmp-avx2.os)
                              /sources/glibc/src/glibc-2.37/build/libc_pic.a(strncmp.os) (__strncmp_avx2)
/sources/glibc/src/glibc-2.37/build/libc_pic.a(strncmp-avx2-rtm.os)
                              /sources/glibc/src/glibc-2.37/build/libc_pic.a(strncmp.os) (__strncmp_avx2_rtm)
/sources/glibc/src/glibc-2.37/build/libc_pic.a(strncmp-evex.os)
                              /sources/glibc/src/glibc-2.37/build/libc_pic.a(strncmp.os) (__strncmp_evex)
/sources/glibc/src/glibc-2.37/build/libc_pic.a(strncmp-sse2.os)
                              /sources/glibc/src/glibc-2.37/build/libc_pic.a(strncmp.os) (__strncmp_sse2)
/sources/glibc/src/glibc-2.37/build/libc_pic.a(strncmp-sse4_2.os)
                              /sources/glibc/src/glibc-2.37/build/libc_pic.a(strncmp.os) (__strncmp_sse42)
/sources/glibc/src/glibc-2.37/build/libc_pic.a(strnlen-avx2.os)
                              /sources/glibc/src/glibc-2.37/build/libc_pic.a(strnlen.os) (__strnlen_avx2)
/sources/glibc/src/glibc-2.37/build/libc_pic.a(strnlen-avx2-rtm.os)
                              /sources/glibc/src/glibc-2.37/build/libc_pic.a(strnlen.os) (__strnlen_avx2_rtm)
/sources/glibc/src/glibc-2.37/build/libc_pic.a(strnlen-evex.os)
                              /sources/glibc/src/glibc-2.37/build/libc_pic.a(strnlen.os) (__strnlen_evex)
/sources/glibc/src/glibc-2.37/build/libc_pic.a(strnlen-sse2.os)
                              /sources/glibc/src/glibc-2.37/build/libc_pic.a(strnlen.os) (__strnlen_sse2)
/sources/glibc/src/glibc-2.37/build/libc_pic.a(varshift.os)
                              /sources/glibc/src/glibc-2.37/build/libc_pic.a(strcspn-sse4.os) (___m128i_shift_right)
/sources/glibc/src/glibc-2.37/build/libc_pic.a(strcspn-generic.os)
                              /sources/glibc/src/glibc-2.37/build/libc_pic.a(strcspn.os) (__strcspn_generic)
/sources/glibc/src/glibc-2.37/build/libc_pic.a(cacheinfo.os)
                              /sources/glibc/src/glibc-2.37/build/libc_pic.a(memmove-avx512-no-vzeroupper.os) (__x86_shared_cache_size_half)
/sources/glibc/src/glibc-2.37/build/libc_pic.a(closedir.os)
                              /sources/glibc/src/glibc-2.37/build/elf/dl-allobjs.os (__closedir)
/sources/glibc/src/glibc-2.37/build/libc_pic.a(rewinddir.os)
                              /sources/glibc/src/glibc-2.37/build/elf/dl-allobjs.os (__rewinddir)
/sources/glibc/src/glibc-2.37/build/libc_pic.a(readdir64.os)
                              /sources/glibc/src/glibc-2.37/build/elf/dl-allobjs.os (__readdir64)
/sources/glibc/src/glibc-2.37/build/libc_pic.a(fdopendir.os)
                              /sources/glibc/src/glibc-2.37/build/elf/dl-allobjs.os (__fdopendir)
/sources/glibc/src/glibc-2.37/build/libc_pic.a(uname.os)
                              /sources/glibc/src/glibc-2.37/build/elf/dl-allobjs.os (__uname)
/sources/glibc/src/glibc-2.37/build/libc_pic.a(_exit.os)
                              /sources/glibc/src/glibc-2.37/build/elf/dl-allobjs.os (__GI__exit)
/sources/glibc/src/glibc-2.37/build/libc_pic.a(getpid.os)
                              /sources/glibc/src/glibc-2.37/build/elf/dl-allobjs.os (__getpid)
/sources/glibc/src/glibc-2.37/build/libc_pic.a(environ.os)
                              /sources/glibc/src/glibc-2.37/build/elf/dl-allobjs.os (__environ)
/sources/glibc/src/glibc-2.37/build/libc_pic.a(stat64.os)
                              /sources/glibc/src/glibc-2.37/build/elf/dl-allobjs.os (__GI___stat64)
/sources/glibc/src/glibc-2.37/build/libc_pic.a(fstat64.os)
                              /sources/glibc/src/glibc-2.37/build/elf/dl-allobjs.os (__GI___fstat64)
/sources/glibc/src/glibc-2.37/build/libc_pic.a(lstat64.os)
                              /sources/glibc/src/glibc-2.37/build/elf/dl-allobjs.os (__GI___lstat64)
/sources/glibc/src/glibc-2.37/build/libc_pic.a(fstatat64.os)
                              /sources/glibc/src/glibc-2.37/build/elf/dl-allobjs.os (__GI___fstatat64)
/sources/glibc/src/glibc-2.37/build/libc_pic.a(openat64.os)
                              /sources/glibc/src/glibc-2.37/build/elf/dl-allobjs.os (__openat64)
/sources/glibc/src/glibc-2.37/build/libc_pic.a(lseek64.os)
                              /sources/glibc/src/glibc-2.37/build/libc_pic.a(rewinddir.os) (__GI___lseek)
/sources/glibc/src/glibc-2.37/build/libc_pic.a(access.os)
                              /sources/glibc/src/glibc-2.37/build/elf/dl-allobjs.os (__access)
/sources/glibc/src/glibc-2.37/build/libc_pic.a(close_nocancel.os)
                              /sources/glibc/src/glibc-2.37/build/elf/dl-allobjs.os (__GI___close_nocancel)
/sources/glibc/src/glibc-2.37/build/libc_pic.a(fcntl_nocancel.os)
                              /sources/glibc/src/glibc-2.37/build/elf/dl-allobjs.os (__GI___fcntl64_nocancel)
/sources/glibc/src/glibc-2.37/build/libc_pic.a(open64_nocancel.os)
                              /sources/glibc/src/glibc-2.37/build/elf/dl-allobjs.os (__GI___open64_nocancel)
/sources/glibc/src/glibc-2.37/build/libc_pic.a(read_nocancel.os)
                              /sources/glibc/src/glibc-2.37/build/elf/dl-allobjs.os (__GI___read_nocancel)
/sources/glibc/src/glibc-2.37/build/libc_pic.a(pread64_nocancel.os)
                              /sources/glibc/src/glibc-2.37/build/elf/dl-allobjs.os (__GI___pread64_nocancel)
/sources/glibc/src/glibc-2.37/build/libc_pic.a(write_nocancel.os)
                              /sources/glibc/src/glibc-2.37/build/elf/dl-allobjs.os (__GI___write_nocancel)
/sources/glibc/src/glibc-2.37/build/libc_pic.a(mmap64.os)
                              /sources/glibc/src/glibc-2.37/build/elf/dl-allobjs.os (__mmap)
/sources/glibc/src/glibc-2.37/build/libc_pic.a(munmap.os)
                              /sources/glibc/src/glibc-2.37/build/elf/dl-allobjs.os (__munmap)
/sources/glibc/src/glibc-2.37/build/libc_pic.a(mprotect.os)
                              /sources/glibc/src/glibc-2.37/build/elf/dl-allobjs.os (__mprotect)
/sources/glibc/src/glibc-2.37/build/libc_pic.a(single_threaded.os)
                              /sources/glibc/src/glibc-2.37/build/libc_pic.a(openat64.os) (__libc_single_threaded_internal)
/sources/glibc/src/glibc-2.37/build/libc_pic.a(profil.os)
                              /sources/glibc/src/glibc-2.37/build/elf/dl-allobjs.os (__profil)
/sources/glibc/src/glibc-2.37/build/libc_pic.a(prof-freq.os)
                              /sources/glibc/src/glibc-2.37/build/libc_pic.a(profil.os) (__GI___profile_frequency)
/sources/glibc/src/glibc-2.37/build/libc_pic.a(dl-addr-obj.os)
                              /sources/glibc/src/glibc-2.37/build/elf/dl-allobjs.os (_dl_addr_inside_object)
/sources/glibc/src/glibc-2.37/build/libc_pic.a(sigaction.os)
                              /sources/glibc/src/glibc-2.37/build/libc_pic.a(profil.os) (__GI___sigaction)
/sources/glibc/src/glibc-2.37/build/libc_pic.a(libc_sigaction.os)
                              /sources/glibc/src/glibc-2.37/build/libc_pic.a(sigaction.os) (__GI___libc_sigaction)
/sources/glibc/src/glibc-2.37/build/libc_pic.a(errname.os)
                              /sources/glibc/src/glibc-2.37/build/libc_pic.a(strerrorname_np.os) (__get_errname)
/sources/glibc/src/glibc-2.37/build/libc_pic.a(strchrnul.os)
                              /sources/glibc/src/glibc-2.37/build/libc_pic.a(strcspn-generic.os) (__strchrnul)
/sources/glibc/src/glibc-2.37/build/libc_pic.a(strchrnul-avx2.os)
                              /sources/glibc/src/glibc-2.37/build/libc_pic.a(strchrnul.os) (__strchrnul_avx2)
/sources/glibc/src/glibc-2.37/build/libc_pic.a(strchrnul-avx2-rtm.os)
                              /sources/glibc/src/glibc-2.37/build/libc_pic.a(strchrnul.os) (__strchrnul_avx2_rtm)
/sources/glibc/src/glibc-2.37/build/libc_pic.a(strchrnul-evex.os)
                              /sources/glibc/src/glibc-2.37/build/libc_pic.a(strchrnul.os) (__strchrnul_evex)
/sources/glibc/src/glibc-2.37/build/libc_pic.a(strchrnul-sse2.os)
                              /sources/glibc/src/glibc-2.37/build/libc_pic.a(strchrnul.os) (__strchrnul_sse2)
/sources/glibc/src/glibc-2.37/build/libc_pic.a(setitimer.os)
                              /sources/glibc/src/glibc-2.37/build/libc_pic.a(profil.os) (__setitimer)
/sources/glibc/src/glibc-2.37/build/libc_pic.a(getdents64.os)
                              /sources/glibc/src/glibc-2.37/build/libc_pic.a(readdir64.os) (__GI___getdents64)

Merging program properties

Updated property 0xc0010001 (0x2fb) to merge /sources/glibc/src/glibc-2.37/build/elf/librtld.mapT.o (0x1) and /sources/glibc/src/glibc-2.37/build/elf/dl-allobjs.os (0x2fb)
Updated property 0xc0010002 (0xd) to merge /sources/glibc/src/glibc-2.37/build/elf/librtld.mapT.o (0x0) and /sources/glibc/src/glibc-2.37/build/elf/dl-allobjs.os (0xd)
Updated property 0xc0010001 (0x2fb) to merge /sources/glibc/src/glibc-2.37/build/elf/librtld.mapT.o (0x2fb) and /sources/glibc/src/glibc-2.37/build/libc_pic.a(check_fds.os) (0x1)
Updated property 0xc0010002 (0xd) to merge /sources/glibc/src/glibc-2.37/build/elf/librtld.mapT.o (0xd) and /sources/glibc/src/glibc-2.37/build/libc_pic.a(check_fds.os) (0x1)
Updated property 0xc0010001 (0x2fb) to merge /sources/glibc/src/glibc-2.37/build/elf/librtld.mapT.o (0x2fb) and /sources/glibc/src/glibc-2.37/build/libc_pic.a(errno.os) (0x1)
Updated property 0xc0010002 (0xd) to merge /sources/glibc/src/glibc-2.37/build/elf/librtld.mapT.o (0xd) and /sources/glibc/src/glibc-2.37/build/libc_pic.a(errno.os) (0x0)
Updated property 0xc0010001 (0x2fb) to merge /sources/glibc/src/glibc-2.37/build/elf/librtld.mapT.o (0x2fb) and /sources/glibc/src/glibc-2.37/build/libc_pic.a(setjmp.os) (0x1)
Updated property 0xc0010002 (0xd) to merge /sources/glibc/src/glibc-2.37/build/elf/librtld.mapT.o (0xd) and /sources/glibc/src/glibc-2.37/build/libc_pic.a(setjmp.os) (0x0)
Updated property 0xc0010001 (0x2fb) to merge /sources/glibc/src/glibc-2.37/build/elf/librtld.mapT.o (0x2fb) and /sources/glibc/src/glibc-2.37/build/libc_pic.a(__longjmp.os) (0x1)
Updated property 0xc0010002 (0xd) to merge /sources/glibc/src/glibc-2.37/build/elf/librtld.mapT.o (0xd) and /sources/glibc/src/glibc-2.37/build/libc_pic.a(__longjmp.os) (0x0)
Updated property 0xc0010001 (0x2fb) to merge /sources/glibc/src/glibc-2.37/build/elf/librtld.mapT.o (0x2fb) and /sources/glibc/src/glibc-2.37/build/libc_pic.a(lowlevellock.os) (0x1)
Updated property 0xc0010002 (0xd) to merge /sources/glibc/src/glibc-2.37/build/elf/librtld.mapT.o (0xd) and /sources/glibc/src/glibc-2.37/build/libc_pic.a(lowlevellock.os) (0x1)
Updated property 0xc0010001 (0x2fb) to merge /sources/glibc/src/glibc-2.37/build/elf/librtld.mapT.o (0x2fb) and /sources/glibc/src/glibc-2.37/build/libc_pic.a(scratch_buffer_set_array_size.os) (0x1)
Updated property 0xc0010002 (0xd) to merge /sources/glibc/src/glibc-2.37/build/elf/librtld.mapT.o (0xd) and /sources/glibc/src/glibc-2.37/build/libc_pic.a(scratch_buffer_set_array_size.os) (0x0)
Updated property 0xc0010001 (0x2fb) to merge /sources/glibc/src/glibc-2.37/build/elf/librtld.mapT.o (0x2fb) and /sources/glibc/src/glibc-2.37/build/libc_pic.a(memchr.os) (0x1)
Updated property 0xc0010002 (0xd) to merge /sources/glibc/src/glibc-2.37/build/elf/librtld.mapT.o (0xd) and /sources/glibc/src/glibc-2.37/build/libc_pic.a(memchr.os) (0x1)
Updated property 0xc0010001 (0x2fb) to merge /sources/glibc/src/glibc-2.37/build/elf/librtld.mapT.o (0x2fb) and /sources/glibc/src/glibc-2.37/build/libc_pic.a(memcmp.os) (0x1)
Updated property 0xc0010002 (0xd) to merge /sources/glibc/src/glibc-2.37/build/elf/librtld.mapT.o (0xd) and /sources/glibc/src/glibc-2.37/build/libc_pic.a(memcmp.os) (0x1)
Updated property 0xc0010001 (0x2fb) to merge /sources/glibc/src/glibc-2.37/build/elf/librtld.mapT.o (0x2fb) and /sources/glibc/src/glibc-2.37/build/libc_pic.a(memcpy.os) (0x1)
Updated property 0xc0010002 (0xd) to merge /sources/glibc/src/glibc-2.37/build/elf/librtld.mapT.o (0xd) and /sources/glibc/src/glibc-2.37/build/libc_pic.a(memcpy.os) (0x1)
Updated property 0xc0010001 (0x2fb) to merge /sources/glibc/src/glibc-2.37/build/elf/librtld.mapT.o (0x2fb) and /sources/glibc/src/glibc-2.37/build/libc_pic.a(memmove.os) (0x1)
Updated property 0xc0010002 (0xd) to merge /sources/glibc/src/glibc-2.37/build/elf/librtld.mapT.o (0xd) and /sources/glibc/src/glibc-2.37/build/libc_pic.a(memmove.os) (0x1)
Updated property 0xc0010001 (0x2fb) to merge /sources/glibc/src/glibc-2.37/build/elf/librtld.mapT.o (0x2fb) and /sources/glibc/src/glibc-2.37/build/libc_pic.a(mempcpy.os) (0x1)
Updated property 0xc0010002 (0xd) to merge /sources/glibc/src/glibc-2.37/build/elf/librtld.mapT.o (0xd) and /sources/glibc/src/glibc-2.37/build/libc_pic.a(mempcpy.os) (0x1)
Updated property 0xc0010001 (0x2fb) to merge /sources/glibc/src/glibc-2.37/build/elf/librtld.mapT.o (0x2fb) and /sources/glibc/src/glibc-2.37/build/libc_pic.a(memset.os) (0x1)
Updated property 0xc0010002 (0xd) to merge /sources/glibc/src/glibc-2.37/build/elf/librtld.mapT.o (0xd) and /sources/glibc/src/glibc-2.37/build/libc_pic.a(memset.os) (0x1)
Updated property 0xc0010001 (0x2fb) to merge /sources/glibc/src/glibc-2.37/build/elf/librtld.mapT.o (0x2fb) and /sources/glibc/src/glibc-2.37/build/libc_pic.a(rawmemchr.os) (0x1)
Updated property 0xc0010002 (0xd) to merge /sources/glibc/src/glibc-2.37/build/elf/librtld.mapT.o (0xd) and /sources/glibc/src/glibc-2.37/build/libc_pic.a(rawmemchr.os) (0x1)
Updated property 0xc0010001 (0x2fb) to merge /sources/glibc/src/glibc-2.37/build/elf/librtld.mapT.o (0x2fb) and /sources/glibc/src/glibc-2.37/build/libc_pic.a(stpcpy.os) (0x1)
Updated property 0xc0010002 (0xd) to merge /sources/glibc/src/glibc-2.37/build/elf/librtld.mapT.o (0xd) and /sources/glibc/src/glibc-2.37/build/libc_pic.a(stpcpy.os) (0x1)
Updated property 0xc0010001 (0x2fb) to merge /sources/glibc/src/glibc-2.37/build/elf/librtld.mapT.o (0x2fb) and /sources/glibc/src/glibc-2.37/build/libc_pic.a(strchr.os) (0x1)
Updated property 0xc0010002 (0xd) to merge /sources/glibc/src/glibc-2.37/build/elf/librtld.mapT.o (0xd) and /sources/glibc/src/glibc-2.37/build/libc_pic.a(strchr.os) (0x1)
Updated property 0xc0010001 (0x2fb) to merge /sources/glibc/src/glibc-2.37/build/elf/librtld.mapT.o (0x2fb) and /sources/glibc/src/glibc-2.37/build/libc_pic.a(strcmp.os) (0x1)
Updated property 0xc0010002 (0xd) to merge /sources/glibc/src/glibc-2.37/build/elf/librtld.mapT.o (0xd) and /sources/glibc/src/glibc-2.37/build/libc_pic.a(strcmp.os) (0x1)
Updated property 0xc0010001 (0x2fb) to merge /sources/glibc/src/glibc-2.37/build/elf/librtld.mapT.o (0x2fb) and /sources/glibc/src/glibc-2.37/build/libc_pic.a(strcspn.os) (0x1)
Updated property 0xc0010002 (0xd) to merge /sources/glibc/src/glibc-2.37/build/elf/librtld.mapT.o (0xd) and /sources/glibc/src/glibc-2.37/build/libc_pic.a(strcspn.os) (0x1)
Updated property 0xc0010001 (0x2fb) to merge /sources/glibc/src/glibc-2.37/build/elf/librtld.mapT.o (0x2fb) and /sources/glibc/src/glibc-2.37/build/libc_pic.a(strdup.os) (0x1)
Updated property 0xc0010002 (0xd) to merge /sources/glibc/src/glibc-2.37/build/elf/librtld.mapT.o (0xd) and /sources/glibc/src/glibc-2.37/build/libc_pic.a(strdup.os) (0x0)
Updated property 0xc0010001 (0x2fb) to merge /sources/glibc/src/glibc-2.37/build/elf/librtld.mapT.o (0x2fb) and /sources/glibc/src/glibc-2.37/build/libc_pic.a(strerrorname_np.os) (0x1)
Updated property 0xc0010002 (0xd) to merge /sources/glibc/src/glibc-2.37/build/elf/librtld.mapT.o (0xd) and /sources/glibc/src/glibc-2.37/build/libc_pic.a(strerrorname_np.os) (0x0)
Updated property 0xc0010001 (0x2fb) to merge /sources/glibc/src/glibc-2.37/build/elf/librtld.mapT.o (0x2fb) and /sources/glibc/src/glibc-2.37/build/libc_pic.a(strlen.os) (0x1)
Updated property 0xc0010002 (0xd) to merge /sources/glibc/src/glibc-2.37/build/elf/librtld.mapT.o (0xd) and /sources/glibc/src/glibc-2.37/build/libc_pic.a(strlen.os) (0x1)
Updated property 0xc0010001 (0x2fb) to merge /sources/glibc/src/glibc-2.37/build/elf/librtld.mapT.o (0x2fb) and /sources/glibc/src/glibc-2.37/build/libc_pic.a(strncmp.os) (0x1)
Updated property 0xc0010002 (0xd) to merge /sources/glibc/src/glibc-2.37/build/elf/librtld.mapT.o (0xd) and /sources/glibc/src/glibc-2.37/build/libc_pic.a(strncmp.os) (0x1)
Updated property 0xc0010001 (0x2fb) to merge /sources/glibc/src/glibc-2.37/build/elf/librtld.mapT.o (0x2fb) and /sources/glibc/src/glibc-2.37/build/libc_pic.a(strnlen.os) (0x1)
Updated property 0xc0010002 (0xd) to merge /sources/glibc/src/glibc-2.37/build/elf/librtld.mapT.o (0xd) and /sources/glibc/src/glibc-2.37/build/libc_pic.a(strnlen.os) (0x1)
Updated property 0xc0010001 (0x2fb) to merge /sources/glibc/src/glibc-2.37/build/elf/librtld.mapT.o (0x2fb) and /sources/glibc/src/glibc-2.37/build/libc_pic.a(memchr-avx2.os) (0x19)
Updated property 0xc0010002 (0xd) to merge /sources/glibc/src/glibc-2.37/build/elf/librtld.mapT.o (0xd) and /sources/glibc/src/glibc-2.37/build/libc_pic.a(memchr-avx2.os) (0x5)
Updated property 0xc0010001 (0x2fb) to merge /sources/glibc/src/glibc-2.37/build/elf/librtld.mapT.o (0x2fb) and /sources/glibc/src/glibc-2.37/build/libc_pic.a(memchr-avx2-rtm.os) (0x19)
Updated property 0xc0010002 (0xd) to merge /sources/glibc/src/glibc-2.37/build/elf/librtld.mapT.o (0xd) and /sources/glibc/src/glibc-2.37/build/libc_pic.a(memchr-avx2-rtm.os) (0x5)
Updated property 0xc0010001 (0xafb) to merge /sources/glibc/src/glibc-2.37/build/elf/librtld.mapT.o (0x2fb) and /sources/glibc/src/glibc-2.37/build/libc_pic.a(memchr-evex.os) (0x839)
Updated property 0xc0010001 (0xafb) to merge /sources/glibc/src/glibc-2.37/build/elf/librtld.mapT.o (0xafb) and /sources/glibc/src/glibc-2.37/build/libc_pic.a(memchr-evex-rtm.os) (0x839)
Updated property 0xc0010001 (0xafb) to merge /sources/glibc/src/glibc-2.37/build/elf/librtld.mapT.o (0xafb) and /sources/glibc/src/glibc-2.37/build/libc_pic.a(memchr-sse2.os) (0x9)
Updated property 0xc0010002 (0xd) to merge /sources/glibc/src/glibc-2.37/build/elf/librtld.mapT.o (0xd) and /sources/glibc/src/glibc-2.37/build/libc_pic.a(memchr-sse2.os) (0x1)
Updated property 0xc0010001 (0xafb) to merge /sources/glibc/src/glibc-2.37/build/elf/librtld.mapT.o (0xafb) and /sources/glibc/src/glibc-2.37/build/libc_pic.a(memcmp-avx2-movbe.os) (0x19)
Updated property 0xc0010002 (0xd) to merge /sources/glibc/src/glibc-2.37/build/elf/librtld.mapT.o (0xd) and /sources/glibc/src/glibc-2.37/build/libc_pic.a(memcmp-avx2-movbe.os) (0x5)
Updated property 0xc0010001 (0xafb) to merge /sources/glibc/src/glibc-2.37/build/elf/librtld.mapT.o (0xafb) and /sources/glibc/src/glibc-2.37/build/libc_pic.a(memcmp-avx2-movbe-rtm.os) (0x19)
Updated property 0xc0010002 (0xd) to merge /sources/glibc/src/glibc-2.37/build/elf/librtld.mapT.o (0xd) and /sources/glibc/src/glibc-2.37/build/libc_pic.a(memcmp-avx2-movbe-rtm.os) (0x5)
Updated property 0xc0010001 (0xafb) to merge /sources/glibc/src/glibc-2.37/build/elf/librtld.mapT.o (0xafb) and /sources/glibc/src/glibc-2.37/build/libc_pic.a(memcmp-evex-movbe.os) (0x839)
Updated property 0xc0010001 (0xafb) to merge /sources/glibc/src/glibc-2.37/build/elf/librtld.mapT.o (0xafb) and /sources/glibc/src/glibc-2.37/build/libc_pic.a(memcmp-sse2.os) (0x9)
Updated property 0xc0010002 (0xd) to merge /sources/glibc/src/glibc-2.37/build/elf/librtld.mapT.o (0xd) and /sources/glibc/src/glibc-2.37/build/libc_pic.a(memcmp-sse2.os) (0x1)
Updated property 0xc0010001 (0xafb) to merge /sources/glibc/src/glibc-2.37/build/elf/librtld.mapT.o (0xafb) and /sources/glibc/src/glibc-2.37/build/libc_pic.a(memmove-avx-unaligned-erms.os) (0x19)
Updated property 0xc0010002 (0xd) to merge /sources/glibc/src/glibc-2.37/build/elf/librtld.mapT.o (0xd) and /sources/glibc/src/glibc-2.37/build/libc_pic.a(memmove-avx-unaligned-erms.os) (0x5)
Updated property 0xc0010001 (0xafb) to merge /sources/glibc/src/glibc-2.37/build/elf/librtld.mapT.o (0xafb) and /sources/glibc/src/glibc-2.37/build/libc_pic.a(memmove-avx-unaligned-erms-rtm.os) (0x19)
Updated property 0xc0010002 (0xd) to merge /sources/glibc/src/glibc-2.37/build/elf/librtld.mapT.o (0xd) and /sources/glibc/src/glibc-2.37/build/libc_pic.a(memmove-avx-unaligned-erms-rtm.os) (0x5)
Updated property 0xc0010001 (0xafb) to merge /sources/glibc/src/glibc-2.37/build/elf/librtld.mapT.o (0xafb) and /sources/glibc/src/glibc-2.37/build/libc_pic.a(memmove-avx512-no-vzeroupper.os) (0x39)
Updated property 0xc0010001 (0xafb) to merge /sources/glibc/src/glibc-2.37/build/elf/librtld.mapT.o (0xafb) and /sources/glibc/src/glibc-2.37/build/libc_pic.a(memmove-avx512-unaligned-erms.os) (0x39)
Updated property 0xc0010001 (0xafb) to merge /sources/glibc/src/glibc-2.37/build/elf/librtld.mapT.o (0xafb) and /sources/glibc/src/glibc-2.37/build/libc_pic.a(memmove-erms.os) (0x1)
Updated property 0xc0010002 (0xd) to merge /sources/glibc/src/glibc-2.37/build/elf/librtld.mapT.o (0xd) and /sources/glibc/src/glibc-2.37/build/libc_pic.a(memmove-erms.os) (0x0)
Updated property 0xc0010001 (0xafb) to merge /sources/glibc/src/glibc-2.37/build/elf/librtld.mapT.o (0xafb) and /sources/glibc/src/glibc-2.37/build/libc_pic.a(memmove-evex-unaligned-erms.os) (0x39)
Updated property 0xc0010001 (0xafb) to merge /sources/glibc/src/glibc-2.37/build/elf/librtld.mapT.o (0xafb) and /sources/glibc/src/glibc-2.37/build/libc_pic.a(memmove-sse2-unaligned-erms.os) (0x9)
Updated property 0xc0010002 (0xd) to merge /sources/glibc/src/glibc-2.37/build/elf/librtld.mapT.o (0xd) and /sources/glibc/src/glibc-2.37/build/libc_pic.a(memmove-sse2-unaligned-erms.os) (0x1)
Updated property 0xc0010001 (0xafb) to merge /sources/glibc/src/glibc-2.37/build/elf/librtld.mapT.o (0xafb) and /sources/glibc/src/glibc-2.37/build/libc_pic.a(memmove-ssse3.os) (0x9)
Updated property 0xc0010002 (0xf) to merge /sources/glibc/src/glibc-2.37/build/elf/librtld.mapT.o (0xd) and /sources/glibc/src/glibc-2.37/build/libc_pic.a(memmove-ssse3.os) (0x3)
Updated property 0xc0010001 (0xafb) to merge /sources/glibc/src/glibc-2.37/build/elf/librtld.mapT.o (0xafb) and /sources/glibc/src/glibc-2.37/build/libc_pic.a(memset-avx2-unaligned-erms.os) (0x19)
Updated property 0xc0010002 (0xf) to merge /sources/glibc/src/glibc-2.37/build/elf/librtld.mapT.o (0xf) and /sources/glibc/src/glibc-2.37/build/libc_pic.a(memset-avx2-unaligned-erms.os) (0x5)
Updated property 0xc0010001 (0xafb) to merge /sources/glibc/src/glibc-2.37/build/elf/librtld.mapT.o (0xafb) and /sources/glibc/src/glibc-2.37/build/libc_pic.a(memset-avx2-unaligned-erms-rtm.os) (0x19)
Updated property 0xc0010002 (0xf) to merge /sources/glibc/src/glibc-2.37/build/elf/librtld.mapT.o (0xf) and /sources/glibc/src/glibc-2.37/build/libc_pic.a(memset-avx2-unaligned-erms-rtm.os) (0x5)
Updated property 0xc0010001 (0xafb) to merge /sources/glibc/src/glibc-2.37/build/elf/librtld.mapT.o (0xafb) and /sources/glibc/src/glibc-2.37/build/libc_pic.a(memset-avx512-no-vzeroupper.os) (0x39)
Updated property 0xc0010002 (0xf) to merge /sources/glibc/src/glibc-2.37/build/elf/librtld.mapT.o (0xf) and /sources/glibc/src/glibc-2.37/build/libc_pic.a(memset-avx512-no-vzeroupper.os) (0xd)
Updated property 0xc0010001 (0xafb) to merge /sources/glibc/src/glibc-2.37/build/elf/librtld.mapT.o (0xafb) and /sources/glibc/src/glibc-2.37/build/libc_pic.a(memset-avx512-unaligned-erms.os) (0x839)
Updated property 0xc0010002 (0xf) to merge /sources/glibc/src/glibc-2.37/build/elf/librtld.mapT.o (0xf) and /sources/glibc/src/glibc-2.37/build/libc_pic.a(memset-avx512-unaligned-erms.os) (0xd)
Updated property 0xc0010001 (0xafb) to merge /sources/glibc/src/glibc-2.37/build/elf/librtld.mapT.o (0xafb) and /sources/glibc/src/glibc-2.37/build/libc_pic.a(memset-erms.os) (0x1)
Updated property 0xc0010002 (0xf) to merge /sources/glibc/src/glibc-2.37/build/elf/librtld.mapT.o (0xf) and /sources/glibc/src/glibc-2.37/build/libc_pic.a(memset-erms.os) (0x0)
Updated property 0xc0010001 (0xafb) to merge /sources/glibc/src/glibc-2.37/build/elf/librtld.mapT.o (0xafb) and /sources/glibc/src/glibc-2.37/build/libc_pic.a(memset-evex-unaligned-erms.os) (0x839)
Updated property 0xc0010002 (0xf) to merge /sources/glibc/src/glibc-2.37/build/elf/librtld.mapT.o (0xf) and /sources/glibc/src/glibc-2.37/build/libc_pic.a(memset-evex-unaligned-erms.os) (0xd)
Updated property 0xc0010001 (0xafb) to merge /sources/glibc/src/glibc-2.37/build/elf/librtld.mapT.o (0xafb) and /sources/glibc/src/glibc-2.37/build/libc_pic.a(memset-sse2-unaligned-erms.os) (0x9)
Updated property 0xc0010002 (0xf) to merge /sources/glibc/src/glibc-2.37/build/elf/librtld.mapT.o (0xf) and /sources/glibc/src/glibc-2.37/build/libc_pic.a(memset-sse2-unaligned-erms.os) (0x1)
Updated property 0xc0010001 (0xafb) to merge /sources/glibc/src/glibc-2.37/build/elf/librtld.mapT.o (0xafb) and /sources/glibc/src/glibc-2.37/build/libc_pic.a(rawmemchr-avx2.os) (0x19)
Updated property 0xc0010002 (0xf) to merge /sources/glibc/src/glibc-2.37/build/elf/librtld.mapT.o (0xf) and /sources/glibc/src/glibc-2.37/build/libc_pic.a(rawmemchr-avx2.os) (0x5)
Updated property 0xc0010001 (0xafb) to merge /sources/glibc/src/glibc-2.37/build/elf/librtld.mapT.o (0xafb) and /sources/glibc/src/glibc-2.37/build/libc_pic.a(rawmemchr-avx2-rtm.os) (0x19)
Updated property 0xc0010002 (0xf) to merge /sources/glibc/src/glibc-2.37/build/elf/librtld.mapT.o (0xf) and /sources/glibc/src/glibc-2.37/build/libc_pic.a(rawmemchr-avx2-rtm.os) (0x5)
Updated property 0xc0010001 (0xafb) to merge /sources/glibc/src/glibc-2.37/build/elf/librtld.mapT.o (0xafb) and /sources/glibc/src/glibc-2.37/build/libc_pic.a(rawmemchr-evex.os) (0x839)
Updated property 0xc0010002 (0xf) to merge /sources/glibc/src/glibc-2.37/build/elf/librtld.mapT.o (0xf) and /sources/glibc/src/glibc-2.37/build/libc_pic.a(rawmemchr-evex.os) (0xd)
Updated property 0xc0010001 (0xafb) to merge /sources/glibc/src/glibc-2.37/build/elf/librtld.mapT.o (0xafb) and /sources/glibc/src/glibc-2.37/build/libc_pic.a(rawmemchr-evex-rtm.os) (0x839)
Updated property 0xc0010002 (0xf) to merge /sources/glibc/src/glibc-2.37/build/elf/librtld.mapT.o (0xf) and /sources/glibc/src/glibc-2.37/build/libc_pic.a(rawmemchr-evex-rtm.os) (0xd)
Updated property 0xc0010001 (0xafb) to merge /sources/glibc/src/glibc-2.37/build/elf/librtld.mapT.o (0xafb) and /sources/glibc/src/glibc-2.37/build/libc_pic.a(rawmemchr-sse2.os) (0x9)
Updated property 0xc0010002 (0xf) to merge /sources/glibc/src/glibc-2.37/build/elf/librtld.mapT.o (0xf) and /sources/glibc/src/glibc-2.37/build/libc_pic.a(rawmemchr-sse2.os) (0x1)
Updated property 0xc0010001 (0xafb) to merge /sources/glibc/src/glibc-2.37/build/elf/librtld.mapT.o (0xafb) and /sources/glibc/src/glibc-2.37/build/libc_pic.a(stpcpy-avx2.os) (0x19)
Updated property 0xc0010002 (0xf) to merge /sources/glibc/src/glibc-2.37/build/elf/librtld.mapT.o (0xf) and /sources/glibc/src/glibc-2.37/build/libc_pic.a(stpcpy-avx2.os) (0x5)
Updated property 0xc0010001 (0xafb) to merge /sources/glibc/src/glibc-2.37/build/elf/librtld.mapT.o (0xafb) and /sources/glibc/src/glibc-2.37/build/libc_pic.a(stpcpy-avx2-rtm.os) (0x19)
Updated property 0xc0010002 (0xf) to merge /sources/glibc/src/glibc-2.37/build/elf/librtld.mapT.o (0xf) and /sources/glibc/src/glibc-2.37/build/libc_pic.a(stpcpy-avx2-rtm.os) (0x5)
Updated property 0xc0010001 (0xafb) to merge /sources/glibc/src/glibc-2.37/build/elf/librtld.mapT.o (0xafb) and /sources/glibc/src/glibc-2.37/build/libc_pic.a(stpcpy-evex.os) (0x839)
Updated property 0xc0010002 (0xf) to merge /sources/glibc/src/glibc-2.37/build/elf/librtld.mapT.o (0xf) and /sources/glibc/src/glibc-2.37/build/libc_pic.a(stpcpy-evex.os) (0xd)
Updated property 0xc0010001 (0xafb) to merge /sources/glibc/src/glibc-2.37/build/elf/librtld.mapT.o (0xafb) and /sources/glibc/src/glibc-2.37/build/libc_pic.a(stpcpy-sse2.os) (0x1)
Updated property 0xc0010002 (0xf) to merge /sources/glibc/src/glibc-2.37/build/elf/librtld.mapT.o (0xf) and /sources/glibc/src/glibc-2.37/build/libc_pic.a(stpcpy-sse2.os) (0x0)
Updated property 0xc0010001 (0xafb) to merge /sources/glibc/src/glibc-2.37/build/elf/librtld.mapT.o (0xafb) and /sources/glibc/src/glibc-2.37/build/libc_pic.a(stpcpy-sse2-unaligned.os) (0x9)
Updated property 0xc0010002 (0xf) to merge /sources/glibc/src/glibc-2.37/build/elf/librtld.mapT.o (0xf) and /sources/glibc/src/glibc-2.37/build/libc_pic.a(stpcpy-sse2-unaligned.os) (0x1)
Updated property 0xc0010001 (0xafb) to merge /sources/glibc/src/glibc-2.37/build/elf/librtld.mapT.o (0xafb) and /sources/glibc/src/glibc-2.37/build/libc_pic.a(strchr-avx2.os) (0x19)
Updated property 0xc0010002 (0xf) to merge /sources/glibc/src/glibc-2.37/build/elf/librtld.mapT.o (0xf) and /sources/glibc/src/glibc-2.37/build/libc_pic.a(strchr-avx2.os) (0x5)
Updated property 0xc0010001 (0xafb) to merge /sources/glibc/src/glibc-2.37/build/elf/librtld.mapT.o (0xafb) and /sources/glibc/src/glibc-2.37/build/libc_pic.a(strchr-avx2-rtm.os) (0x19)
Updated property 0xc0010002 (0xf) to merge /sources/glibc/src/glibc-2.37/build/elf/librtld.mapT.o (0xf) and /sources/glibc/src/glibc-2.37/build/libc_pic.a(strchr-avx2-rtm.os) (0x5)
Updated property 0xc0010001 (0xafb) to merge /sources/glibc/src/glibc-2.37/build/elf/librtld.mapT.o (0xafb) and /sources/glibc/src/glibc-2.37/build/libc_pic.a(strchr-evex.os) (0x839)
Updated property 0xc0010002 (0xf) to merge /sources/glibc/src/glibc-2.37/build/elf/librtld.mapT.o (0xf) and /sources/glibc/src/glibc-2.37/build/libc_pic.a(strchr-evex.os) (0xd)
Updated property 0xc0010001 (0xafb) to merge /sources/glibc/src/glibc-2.37/build/elf/librtld.mapT.o (0xafb) and /sources/glibc/src/glibc-2.37/build/libc_pic.a(strchr-sse2.os) (0x9)
Updated property 0xc0010002 (0xf) to merge /sources/glibc/src/glibc-2.37/build/elf/librtld.mapT.o (0xf) and /sources/glibc/src/glibc-2.37/build/libc_pic.a(strchr-sse2.os) (0x1)
Updated property 0xc0010001 (0xafb) to merge /sources/glibc/src/glibc-2.37/build/elf/librtld.mapT.o (0xafb) and /sources/glibc/src/glibc-2.37/build/libc_pic.a(strchr-sse2-no-bsf.os) (0x9)
Updated property 0xc0010002 (0xf) to merge /sources/glibc/src/glibc-2.37/build/elf/librtld.mapT.o (0xf) and /sources/glibc/src/glibc-2.37/build/libc_pic.a(strchr-sse2-no-bsf.os) (0x1)
Updated property 0xc0010001 (0xafb) to merge /sources/glibc/src/glibc-2.37/build/elf/librtld.mapT.o (0xafb) and /sources/glibc/src/glibc-2.37/build/libc_pic.a(strcmp-avx2.os) (0x19)
Updated property 0xc0010002 (0xf) to merge /sources/glibc/src/glibc-2.37/build/elf/librtld.mapT.o (0xf) and /sources/glibc/src/glibc-2.37/build/libc_pic.a(strcmp-avx2.os) (0x5)
Updated property 0xc0010001 (0xafb) to merge /sources/glibc/src/glibc-2.37/build/elf/librtld.mapT.o (0xafb) and /sources/glibc/src/glibc-2.37/build/libc_pic.a(strcmp-avx2-rtm.os) (0x19)
Updated property 0xc0010002 (0xf) to merge /sources/glibc/src/glibc-2.37/build/elf/librtld.mapT.o (0xf) and /sources/glibc/src/glibc-2.37/build/libc_pic.a(strcmp-avx2-rtm.os) (0x5)
Updated property 0xc0010001 (0xafb) to merge /sources/glibc/src/glibc-2.37/build/elf/librtld.mapT.o (0xafb) and /sources/glibc/src/glibc-2.37/build/libc_pic.a(strcmp-evex.os) (0x839)
Updated property 0xc0010002 (0xf) to merge /sources/glibc/src/glibc-2.37/build/elf/librtld.mapT.o (0xf) and /sources/glibc/src/glibc-2.37/build/libc_pic.a(strcmp-evex.os) (0xd)
Updated property 0xc0010001 (0xafb) to merge /sources/glibc/src/glibc-2.37/build/elf/librtld.mapT.o (0xafb) and /sources/glibc/src/glibc-2.37/build/libc_pic.a(strcmp-sse2.os) (0x9)
Updated property 0xc0010002 (0xf) to merge /sources/glibc/src/glibc-2.37/build/elf/librtld.mapT.o (0xf) and /sources/glibc/src/glibc-2.37/build/libc_pic.a(strcmp-sse2.os) (0x1)
Updated property 0xc0010001 (0xafb) to merge /sources/glibc/src/glibc-2.37/build/elf/librtld.mapT.o (0xafb) and /sources/glibc/src/glibc-2.37/build/libc_pic.a(strcmp-sse2-unaligned.os) (0x9)
Updated property 0xc0010002 (0xf) to merge /sources/glibc/src/glibc-2.37/build/elf/librtld.mapT.o (0xf) and /sources/glibc/src/glibc-2.37/build/libc_pic.a(strcmp-sse2-unaligned.os) (0x1)
Updated property 0xc0010001 (0xafb) to merge /sources/glibc/src/glibc-2.37/build/elf/librtld.mapT.o (0xafb) and /sources/glibc/src/glibc-2.37/build/libc_pic.a(strcmp-sse4_2.os) (0x9)
Updated property 0xc0010002 (0xf) to merge /sources/glibc/src/glibc-2.37/build/elf/librtld.mapT.o (0xf) and /sources/glibc/src/glibc-2.37/build/libc_pic.a(strcmp-sse4_2.os) (0x3)
Updated property 0xc0010001 (0xafb) to merge /sources/glibc/src/glibc-2.37/build/elf/librtld.mapT.o (0xafb) and /sources/glibc/src/glibc-2.37/build/libc_pic.a(strcspn-sse4.os) (0x9)
Updated property 0xc0010002 (0xf) to merge /sources/glibc/src/glibc-2.37/build/elf/librtld.mapT.o (0xf) and /sources/glibc/src/glibc-2.37/build/libc_pic.a(strcspn-sse4.os) (0x3)
Updated property 0xc0010001 (0xafb) to merge /sources/glibc/src/glibc-2.37/build/elf/librtld.mapT.o (0xafb) and /sources/glibc/src/glibc-2.37/build/libc_pic.a(strlen-avx2.os) (0x19)
Updated property 0xc0010002 (0xf) to merge /sources/glibc/src/glibc-2.37/build/elf/librtld.mapT.o (0xf) and /sources/glibc/src/glibc-2.37/build/libc_pic.a(strlen-avx2.os) (0x5)
Updated property 0xc0010001 (0xafb) to merge /sources/glibc/src/glibc-2.37/build/elf/librtld.mapT.o (0xafb) and /sources/glibc/src/glibc-2.37/build/libc_pic.a(strlen-avx2-rtm.os) (0x19)
Updated property 0xc0010002 (0xf) to merge /sources/glibc/src/glibc-2.37/build/elf/librtld.mapT.o (0xf) and /sources/glibc/src/glibc-2.37/build/libc_pic.a(strlen-avx2-rtm.os) (0x5)
Updated property 0xc0010001 (0xafb) to merge /sources/glibc/src/glibc-2.37/build/elf/librtld.mapT.o (0xafb) and /sources/glibc/src/glibc-2.37/build/libc_pic.a(strlen-evex.os) (0x839)
Updated property 0xc0010002 (0xf) to merge /sources/glibc/src/glibc-2.37/build/elf/librtld.mapT.o (0xf) and /sources/glibc/src/glibc-2.37/build/libc_pic.a(strlen-evex.os) (0x9)
Updated property 0xc0010001 (0xafb) to merge /sources/glibc/src/glibc-2.37/build/elf/librtld.mapT.o (0xafb) and /sources/glibc/src/glibc-2.37/build/libc_pic.a(strlen-sse2.os) (0x9)
Updated property 0xc0010002 (0xf) to merge /sources/glibc/src/glibc-2.37/build/elf/librtld.mapT.o (0xf) and /sources/glibc/src/glibc-2.37/build/libc_pic.a(strlen-sse2.os) (0x1)
Updated property 0xc0010001 (0xafb) to merge /sources/glibc/src/glibc-2.37/build/elf/librtld.mapT.o (0xafb) and /sources/glibc/src/glibc-2.37/build/libc_pic.a(strncmp-avx2.os) (0x19)
Updated property 0xc0010002 (0xf) to merge /sources/glibc/src/glibc-2.37/build/elf/librtld.mapT.o (0xf) and /sources/glibc/src/glibc-2.37/build/libc_pic.a(strncmp-avx2.os) (0x5)
Updated property 0xc0010001 (0xafb) to merge /sources/glibc/src/glibc-2.37/build/elf/librtld.mapT.o (0xafb) and /sources/glibc/src/glibc-2.37/build/libc_pic.a(strncmp-avx2-rtm.os) (0x19)
Updated property 0xc0010002 (0xf) to merge /sources/glibc/src/glibc-2.37/build/elf/librtld.mapT.o (0xf) and /sources/glibc/src/glibc-2.37/build/libc_pic.a(strncmp-avx2-rtm.os) (0x5)
Updated property 0xc0010001 (0xafb) to merge /sources/glibc/src/glibc-2.37/build/elf/librtld.mapT.o (0xafb) and /sources/glibc/src/glibc-2.37/build/libc_pic.a(strncmp-evex.os) (0x839)
Updated property 0xc0010002 (0xf) to merge /sources/glibc/src/glibc-2.37/build/elf/librtld.mapT.o (0xf) and /sources/glibc/src/glibc-2.37/build/libc_pic.a(strncmp-evex.os) (0xd)
Updated property 0xc0010001 (0xafb) to merge /sources/glibc/src/glibc-2.37/build/elf/librtld.mapT.o (0xafb) and /sources/glibc/src/glibc-2.37/build/libc_pic.a(strncmp-sse2.os) (0x9)
Updated property 0xc0010002 (0xf) to merge /sources/glibc/src/glibc-2.37/build/elf/librtld.mapT.o (0xf) and /sources/glibc/src/glibc-2.37/build/libc_pic.a(strncmp-sse2.os) (0x1)
Updated property 0xc0010001 (0xafb) to merge /sources/glibc/src/glibc-2.37/build/elf/librtld.mapT.o (0xafb) and /sources/glibc/src/glibc-2.37/build/libc_pic.a(strncmp-sse4_2.os) (0x9)
Updated property 0xc0010002 (0xf) to merge /sources/glibc/src/glibc-2.37/build/elf/librtld.mapT.o (0xf) and /sources/glibc/src/glibc-2.37/build/libc_pic.a(strncmp-sse4_2.os) (0x3)
Updated property 0xc0010001 (0xafb) to merge /sources/glibc/src/glibc-2.37/build/elf/librtld.mapT.o (0xafb) and /sources/glibc/src/glibc-2.37/build/libc_pic.a(strnlen-avx2.os) (0x19)
Updated property 0xc0010002 (0xf) to merge /sources/glibc/src/glibc-2.37/build/elf/librtld.mapT.o (0xf) and /sources/glibc/src/glibc-2.37/build/libc_pic.a(strnlen-avx2.os) (0x5)
Updated property 0xc0010001 (0xafb) to merge /sources/glibc/src/glibc-2.37/build/elf/librtld.mapT.o (0xafb) and /sources/glibc/src/glibc-2.37/build/libc_pic.a(strnlen-avx2-rtm.os) (0x19)
Updated property 0xc0010002 (0xf) to merge /sources/glibc/src/glibc-2.37/build/elf/librtld.mapT.o (0xf) and /sources/glibc/src/glibc-2.37/build/libc_pic.a(strnlen-avx2-rtm.os) (0x5)
Updated property 0xc0010001 (0xafb) to merge /sources/glibc/src/glibc-2.37/build/elf/librtld.mapT.o (0xafb) and /sources/glibc/src/glibc-2.37/build/libc_pic.a(strnlen-evex.os) (0x839)
Updated property 0xc0010002 (0xf) to merge /sources/glibc/src/glibc-2.37/build/elf/librtld.mapT.o (0xf) and /sources/glibc/src/glibc-2.37/build/libc_pic.a(strnlen-evex.os) (0xd)
Updated property 0xc0010001 (0xafb) to merge /sources/glibc/src/glibc-2.37/build/elf/librtld.mapT.o (0xafb) and /sources/glibc/src/glibc-2.37/build/libc_pic.a(strnlen-sse2.os) (0x9)
Updated property 0xc0010002 (0xf) to merge /sources/glibc/src/glibc-2.37/build/elf/librtld.mapT.o (0xf) and /sources/glibc/src/glibc-2.37/build/libc_pic.a(strnlen-sse2.os) (0x1)
Updated property 0xc0010001 (0xafb) to merge /sources/glibc/src/glibc-2.37/build/elf/librtld.mapT.o (0xafb) and /sources/glibc/src/glibc-2.37/build/libc_pic.a(varshift.os) (0x1)
Updated property 0xc0010002 (0xf) to merge /sources/glibc/src/glibc-2.37/build/elf/librtld.mapT.o (0xf) and /sources/glibc/src/glibc-2.37/build/libc_pic.a(varshift.os) (0x0)
Updated property 0xc0010001 (0xafb) to merge /sources/glibc/src/glibc-2.37/build/elf/librtld.mapT.o (0xafb) and /sources/glibc/src/glibc-2.37/build/libc_pic.a(strcspn-generic.os) (0x9)
Updated property 0xc0010002 (0xf) to merge /sources/glibc/src/glibc-2.37/build/elf/librtld.mapT.o (0xf) and /sources/glibc/src/glibc-2.37/build/libc_pic.a(strcspn-generic.os) (0x1)
Updated property 0xc0010001 (0xafb) to merge /sources/glibc/src/glibc-2.37/build/elf/librtld.mapT.o (0xafb) and /sources/glibc/src/glibc-2.37/build/libc_pic.a(cacheinfo.os) (0x1)
Updated property 0xc0010002 (0xf) to merge /sources/glibc/src/glibc-2.37/build/elf/librtld.mapT.o (0xf) and /sources/glibc/src/glibc-2.37/build/libc_pic.a(cacheinfo.os) (0x0)
Updated property 0xc0010001 (0xafb) to merge /sources/glibc/src/glibc-2.37/build/elf/librtld.mapT.o (0xafb) and /sources/glibc/src/glibc-2.37/build/libc_pic.a(closedir.os) (0x1)
Updated property 0xc0010002 (0xf) to merge /sources/glibc/src/glibc-2.37/build/elf/librtld.mapT.o (0xf) and /sources/glibc/src/glibc-2.37/build/libc_pic.a(closedir.os) (0x0)
Updated property 0xc0010001 (0xafb) to merge /sources/glibc/src/glibc-2.37/build/elf/librtld.mapT.o (0xafb) and /sources/glibc/src/glibc-2.37/build/libc_pic.a(rewinddir.os) (0x9)
Updated property 0xc0010002 (0xf) to merge /sources/glibc/src/glibc-2.37/build/elf/librtld.mapT.o (0xf) and /sources/glibc/src/glibc-2.37/build/libc_pic.a(rewinddir.os) (0x1)
Updated property 0xc0010001 (0xafb) to merge /sources/glibc/src/glibc-2.37/build/elf/librtld.mapT.o (0xafb) and /sources/glibc/src/glibc-2.37/build/libc_pic.a(readdir64.os) (0x1)
Updated property 0xc0010002 (0xf) to merge /sources/glibc/src/glibc-2.37/build/elf/librtld.mapT.o (0xf) and /sources/glibc/src/glibc-2.37/build/libc_pic.a(readdir64.os) (0x0)
Updated property 0xc0010001 (0xafb) to merge /sources/glibc/src/glibc-2.37/build/elf/librtld.mapT.o (0xafb) and /sources/glibc/src/glibc-2.37/build/libc_pic.a(fdopendir.os) (0x1)
Updated property 0xc0010002 (0xf) to merge /sources/glibc/src/glibc-2.37/build/elf/librtld.mapT.o (0xf) and /sources/glibc/src/glibc-2.37/build/libc_pic.a(fdopendir.os) (0x0)
Updated property 0xc0010001 (0xafb) to merge /sources/glibc/src/glibc-2.37/build/elf/librtld.mapT.o (0xafb) and /sources/glibc/src/glibc-2.37/build/libc_pic.a(uname.os) (0x1)
Updated property 0xc0010002 (0xf) to merge /sources/glibc/src/glibc-2.37/build/elf/librtld.mapT.o (0xf) and /sources/glibc/src/glibc-2.37/build/libc_pic.a(uname.os) (0x1)
Updated property 0xc0010001 (0xafb) to merge /sources/glibc/src/glibc-2.37/build/elf/librtld.mapT.o (0xafb) and /sources/glibc/src/glibc-2.37/build/libc_pic.a(_exit.os) (0x1)
Updated property 0xc0010002 (0xf) to merge /sources/glibc/src/glibc-2.37/build/elf/librtld.mapT.o (0xf) and /sources/glibc/src/glibc-2.37/build/libc_pic.a(_exit.os) (0x1)
Updated property 0xc0010001 (0xafb) to merge /sources/glibc/src/glibc-2.37/build/elf/librtld.mapT.o (0xafb) and /sources/glibc/src/glibc-2.37/build/libc_pic.a(getpid.os) (0x1)
Updated property 0xc0010002 (0xf) to merge /sources/glibc/src/glibc-2.37/build/elf/librtld.mapT.o (0xf) and /sources/glibc/src/glibc-2.37/build/libc_pic.a(getpid.os) (0x1)
Updated property 0xc0010001 (0xafb) to merge /sources/glibc/src/glibc-2.37/build/elf/librtld.mapT.o (0xafb) and /sources/glibc/src/glibc-2.37/build/libc_pic.a(environ.os) (0x1)
Updated property 0xc0010002 (0xf) to merge /sources/glibc/src/glibc-2.37/build/elf/librtld.mapT.o (0xf) and /sources/glibc/src/glibc-2.37/build/libc_pic.a(environ.os) (0x0)
Updated property 0xc0010001 (0xafb) to merge /sources/glibc/src/glibc-2.37/build/elf/librtld.mapT.o (0xafb) and /sources/glibc/src/glibc-2.37/build/libc_pic.a(stat64.os) (0x1)
Updated property 0xc0010002 (0xf) to merge /sources/glibc/src/glibc-2.37/build/elf/librtld.mapT.o (0xf) and /sources/glibc/src/glibc-2.37/build/libc_pic.a(stat64.os) (0x0)
Updated property 0xc0010001 (0xafb) to merge /sources/glibc/src/glibc-2.37/build/elf/librtld.mapT.o (0xafb) and /sources/glibc/src/glibc-2.37/build/libc_pic.a(fstat64.os) (0x1)
Updated property 0xc0010002 (0xf) to merge /sources/glibc/src/glibc-2.37/build/elf/librtld.mapT.o (0xf) and /sources/glibc/src/glibc-2.37/build/libc_pic.a(fstat64.os) (0x0)
Updated property 0xc0010001 (0xafb) to merge /sources/glibc/src/glibc-2.37/build/elf/librtld.mapT.o (0xafb) and /sources/glibc/src/glibc-2.37/build/libc_pic.a(lstat64.os) (0x1)
Updated property 0xc0010002 (0xf) to merge /sources/glibc/src/glibc-2.37/build/elf/librtld.mapT.o (0xf) and /sources/glibc/src/glibc-2.37/build/libc_pic.a(lstat64.os) (0x0)
Updated property 0xc0010001 (0xafb) to merge /sources/glibc/src/glibc-2.37/build/elf/librtld.mapT.o (0xafb) and /sources/glibc/src/glibc-2.37/build/libc_pic.a(fstatat64.os) (0x1)
Updated property 0xc0010002 (0xf) to merge /sources/glibc/src/glibc-2.37/build/elf/librtld.mapT.o (0xf) and /sources/glibc/src/glibc-2.37/build/libc_pic.a(fstatat64.os) (0x1)
Updated property 0xc0010001 (0xafb) to merge /sources/glibc/src/glibc-2.37/build/elf/librtld.mapT.o (0xafb) and /sources/glibc/src/glibc-2.37/build/libc_pic.a(openat64.os) (0x1)
Updated property 0xc0010002 (0xf) to merge /sources/glibc/src/glibc-2.37/build/elf/librtld.mapT.o (0xf) and /sources/glibc/src/glibc-2.37/build/libc_pic.a(openat64.os) (0x1)
Updated property 0xc0010001 (0xafb) to merge /sources/glibc/src/glibc-2.37/build/elf/librtld.mapT.o (0xafb) and /sources/glibc/src/glibc-2.37/build/libc_pic.a(lseek64.os) (0x1)
Updated property 0xc0010002 (0xf) to merge /sources/glibc/src/glibc-2.37/build/elf/librtld.mapT.o (0xf) and /sources/glibc/src/glibc-2.37/build/libc_pic.a(lseek64.os) (0x1)
Updated property 0xc0010001 (0xafb) to merge /sources/glibc/src/glibc-2.37/build/elf/librtld.mapT.o (0xafb) and /sources/glibc/src/glibc-2.37/build/libc_pic.a(access.os) (0x1)
Updated property 0xc0010002 (0xf) to merge /sources/glibc/src/glibc-2.37/build/elf/librtld.mapT.o (0xf) and /sources/glibc/src/glibc-2.37/build/libc_pic.a(access.os) (0x1)
Updated property 0xc0010001 (0xafb) to merge /sources/glibc/src/glibc-2.37/build/elf/librtld.mapT.o (0xafb) and /sources/glibc/src/glibc-2.37/build/libc_pic.a(close_nocancel.os) (0x1)
Updated property 0xc0010002 (0xf) to merge /sources/glibc/src/glibc-2.37/build/elf/librtld.mapT.o (0xf) and /sources/glibc/src/glibc-2.37/build/libc_pic.a(close_nocancel.os) (0x1)
Updated property 0xc0010001 (0xafb) to merge /sources/glibc/src/glibc-2.37/build/elf/librtld.mapT.o (0xafb) and /sources/glibc/src/glibc-2.37/build/libc_pic.a(fcntl_nocancel.os) (0x1)
Updated property 0xc0010002 (0xf) to merge /sources/glibc/src/glibc-2.37/build/elf/librtld.mapT.o (0xf) and /sources/glibc/src/glibc-2.37/build/libc_pic.a(fcntl_nocancel.os) (0x1)
Updated property 0xc0010001 (0xafb) to merge /sources/glibc/src/glibc-2.37/build/elf/librtld.mapT.o (0xafb) and /sources/glibc/src/glibc-2.37/build/libc_pic.a(open64_nocancel.os) (0x1)
Updated property 0xc0010002 (0xf) to merge /sources/glibc/src/glibc-2.37/build/elf/librtld.mapT.o (0xf) and /sources/glibc/src/glibc-2.37/build/libc_pic.a(open64_nocancel.os) (0x1)
Updated property 0xc0010001 (0xafb) to merge /sources/glibc/src/glibc-2.37/build/elf/librtld.mapT.o (0xafb) and /sources/glibc/src/glibc-2.37/build/libc_pic.a(read_nocancel.os) (0x1)
Updated property 0xc0010002 (0xf) to merge /sources/glibc/src/glibc-2.37/build/elf/librtld.mapT.o (0xf) and /sources/glibc/src/glibc-2.37/build/libc_pic.a(read_nocancel.os) (0x1)
Updated property 0xc0010001 (0xafb) to merge /sources/glibc/src/glibc-2.37/build/elf/librtld.mapT.o (0xafb) and /sources/glibc/src/glibc-2.37/build/libc_pic.a(pread64_nocancel.os) (0x1)
Updated property 0xc0010002 (0xf) to merge /sources/glibc/src/glibc-2.37/build/elf/librtld.mapT.o (0xf) and /sources/glibc/src/glibc-2.37/build/libc_pic.a(pread64_nocancel.os) (0x1)
Updated property 0xc0010001 (0xafb) to merge /sources/glibc/src/glibc-2.37/build/elf/librtld.mapT.o (0xafb) and /sources/glibc/src/glibc-2.37/build/libc_pic.a(write_nocancel.os) (0x1)
Updated property 0xc0010002 (0xf) to merge /sources/glibc/src/glibc-2.37/build/elf/librtld.mapT.o (0xf) and /sources/glibc/src/glibc-2.37/build/libc_pic.a(write_nocancel.os) (0x1)
Updated property 0xc0010001 (0xafb) to merge /sources/glibc/src/glibc-2.37/build/elf/librtld.mapT.o (0xafb) and /sources/glibc/src/glibc-2.37/build/libc_pic.a(mmap64.os) (0x1)
Updated property 0xc0010002 (0xf) to merge /sources/glibc/src/glibc-2.37/build/elf/librtld.mapT.o (0xf) and /sources/glibc/src/glibc-2.37/build/libc_pic.a(mmap64.os) (0x1)
Updated property 0xc0010001 (0xafb) to merge /sources/glibc/src/glibc-2.37/build/elf/librtld.mapT.o (0xafb) and /sources/glibc/src/glibc-2.37/build/libc_pic.a(munmap.os) (0x1)
Updated property 0xc0010002 (0xf) to merge /sources/glibc/src/glibc-2.37/build/elf/librtld.mapT.o (0xf) and /sources/glibc/src/glibc-2.37/build/libc_pic.a(munmap.os) (0x1)
Updated property 0xc0010001 (0xafb) to merge /sources/glibc/src/glibc-2.37/build/elf/librtld.mapT.o (0xafb) and /sources/glibc/src/glibc-2.37/build/libc_pic.a(mprotect.os) (0x1)
Updated property 0xc0010002 (0xf) to merge /sources/glibc/src/glibc-2.37/build/elf/librtld.mapT.o (0xf) and /sources/glibc/src/glibc-2.37/build/libc_pic.a(mprotect.os) (0x1)
Updated property 0xc0010001 (0xafb) to merge /sources/glibc/src/glibc-2.37/build/elf/librtld.mapT.o (0xafb) and /sources/glibc/src/glibc-2.37/build/libc_pic.a(single_threaded.os) (0x1)
Updated property 0xc0010002 (0xf) to merge /sources/glibc/src/glibc-2.37/build/elf/librtld.mapT.o (0xf) and /sources/glibc/src/glibc-2.37/build/libc_pic.a(single_threaded.os) (0x0)
Updated property 0xc0010001 (0xafb) to merge /sources/glibc/src/glibc-2.37/build/elf/librtld.mapT.o (0xafb) and /sources/glibc/src/glibc-2.37/build/libc_pic.a(profil.os) (0x9)
Updated property 0xc0010002 (0xf) to merge /sources/glibc/src/glibc-2.37/build/elf/librtld.mapT.o (0xf) and /sources/glibc/src/glibc-2.37/build/libc_pic.a(profil.os) (0x1)
Updated property 0xc0010001 (0xafb) to merge /sources/glibc/src/glibc-2.37/build/elf/librtld.mapT.o (0xafb) and /sources/glibc/src/glibc-2.37/build/libc_pic.a(prof-freq.os) (0x1)
Updated property 0xc0010002 (0xf) to merge /sources/glibc/src/glibc-2.37/build/elf/librtld.mapT.o (0xf) and /sources/glibc/src/glibc-2.37/build/libc_pic.a(prof-freq.os) (0x0)
Updated property 0xc0010001 (0xafb) to merge /sources/glibc/src/glibc-2.37/build/elf/librtld.mapT.o (0xafb) and /sources/glibc/src/glibc-2.37/build/libc_pic.a(dl-addr-obj.os) (0x1)
Updated property 0xc0010002 (0xf) to merge /sources/glibc/src/glibc-2.37/build/elf/librtld.mapT.o (0xf) and /sources/glibc/src/glibc-2.37/build/libc_pic.a(dl-addr-obj.os) (0x0)
Updated property 0xc0010001 (0xafb) to merge /sources/glibc/src/glibc-2.37/build/elf/librtld.mapT.o (0xafb) and /sources/glibc/src/glibc-2.37/build/libc_pic.a(sigaction.os) (0x1)
Updated property 0xc0010002 (0xf) to merge /sources/glibc/src/glibc-2.37/build/elf/librtld.mapT.o (0xf) and /sources/glibc/src/glibc-2.37/build/libc_pic.a(sigaction.os) (0x0)
Updated property 0xc0010001 (0xafb) to merge /sources/glibc/src/glibc-2.37/build/elf/librtld.mapT.o (0xafb) and /sources/glibc/src/glibc-2.37/build/libc_pic.a(libc_sigaction.os) (0x9)
Updated property 0xc0010002 (0xf) to merge /sources/glibc/src/glibc-2.37/build/elf/librtld.mapT.o (0xf) and /sources/glibc/src/glibc-2.37/build/libc_pic.a(libc_sigaction.os) (0x1)
Updated property 0xc0010001 (0xafb) to merge /sources/glibc/src/glibc-2.37/build/elf/librtld.mapT.o (0xafb) and /sources/glibc/src/glibc-2.37/build/libc_pic.a(errname.os) (0x1)
Updated property 0xc0010002 (0xf) to merge /sources/glibc/src/glibc-2.37/build/elf/librtld.mapT.o (0xf) and /sources/glibc/src/glibc-2.37/build/libc_pic.a(errname.os) (0x0)
Updated property 0xc0010001 (0xafb) to merge /sources/glibc/src/glibc-2.37/build/elf/librtld.mapT.o (0xafb) and /sources/glibc/src/glibc-2.37/build/libc_pic.a(strchrnul.os) (0x1)
Updated property 0xc0010002 (0xf) to merge /sources/glibc/src/glibc-2.37/build/elf/librtld.mapT.o (0xf) and /sources/glibc/src/glibc-2.37/build/libc_pic.a(strchrnul.os) (0x1)
Updated property 0xc0010001 (0xafb) to merge /sources/glibc/src/glibc-2.37/build/elf/librtld.mapT.o (0xafb) and /sources/glibc/src/glibc-2.37/build/libc_pic.a(strchrnul-avx2.os) (0x19)
Updated property 0xc0010002 (0xf) to merge /sources/glibc/src/glibc-2.37/build/elf/librtld.mapT.o (0xf) and /sources/glibc/src/glibc-2.37/build/libc_pic.a(strchrnul-avx2.os) (0x5)
Updated property 0xc0010001 (0xafb) to merge /sources/glibc/src/glibc-2.37/build/elf/librtld.mapT.o (0xafb) and /sources/glibc/src/glibc-2.37/build/libc_pic.a(strchrnul-avx2-rtm.os) (0x19)
Updated property 0xc0010002 (0xf) to merge /sources/glibc/src/glibc-2.37/build/elf/librtld.mapT.o (0xf) and /sources/glibc/src/glibc-2.37/build/libc_pic.a(strchrnul-avx2-rtm.os) (0x5)
Updated property 0xc0010001 (0xafb) to merge /sources/glibc/src/glibc-2.37/build/elf/librtld.mapT.o (0xafb) and /sources/glibc/src/glibc-2.37/build/libc_pic.a(strchrnul-evex.os) (0x839)
Updated property 0xc0010002 (0xf) to merge /sources/glibc/src/glibc-2.37/build/elf/librtld.mapT.o (0xf) and /sources/glibc/src/glibc-2.37/build/libc_pic.a(strchrnul-evex.os) (0xd)
Updated property 0xc0010001 (0xafb) to merge /sources/glibc/src/glibc-2.37/build/elf/librtld.mapT.o (0xafb) and /sources/glibc/src/glibc-2.37/build/libc_pic.a(strchrnul-sse2.os) (0x9)
Updated property 0xc0010002 (0xf) to merge /sources/glibc/src/glibc-2.37/build/elf/librtld.mapT.o (0xf) and /sources/glibc/src/glibc-2.37/build/libc_pic.a(strchrnul-sse2.os) (0x1)
Updated property 0xc0010001 (0xafb) to merge /sources/glibc/src/glibc-2.37/build/elf/librtld.mapT.o (0xafb) and /sources/glibc/src/glibc-2.37/build/libc_pic.a(setitimer.os) (0x1)
Updated property 0xc0010002 (0xf) to merge /sources/glibc/src/glibc-2.37/build/elf/librtld.mapT.o (0xf) and /sources/glibc/src/glibc-2.37/build/libc_pic.a(setitimer.os) (0x1)
Updated property 0xc0010001 (0xafb) to merge /sources/glibc/src/glibc-2.37/build/elf/librtld.mapT.o (0xafb) and /sources/glibc/src/glibc-2.37/build/libc_pic.a(getdents64.os) (0x1)
Updated property 0xc0010002 (0xf) to merge /sources/glibc/src/glibc-2.37/build/elf/librtld.mapT.o (0xf) and /sources/glibc/src/glibc-2.37/build/libc_pic.a(getdents64.os) (0x1)

Discarded input sections

 .note.gnu.property
                0x0000000000000000       0x30 /sources/glibc/src/glibc-2.37/build/elf/dl-allobjs.os
 .note.gnu.property
                0x0000000000000000       0x30 /sources/glibc/src/glibc-2.37/build/libc_pic.a(check_fds.os)
 .note.gnu.property
                0x0000000000000000       0x30 /sources/glibc/src/glibc-2.37/build/libc_pic.a(errno.os)
 .note.gnu.property
                0x0000000000000000       0x30 /sources/glibc/src/glibc-2.37/build/libc_pic.a(setjmp.os)
 .note.gnu.property
                0x0000000000000000       0x30 /sources/glibc/src/glibc-2.37/build/libc_pic.a(__longjmp.os)
 .note.gnu.property
                0x0000000000000000       0x30 /sources/glibc/src/glibc-2.37/build/libc_pic.a(lowlevellock.os)
 .note.gnu.property
                0x0000000000000000       0x30 /sources/glibc/src/glibc-2.37/build/libc_pic.a(scratch_buffer_set_array_size.os)
 .note.gnu.property
                0x0000000000000000       0x30 /sources/glibc/src/glibc-2.37/build/libc_pic.a(memchr.os)
 .note.gnu.property
                0x0000000000000000       0x30 /sources/glibc/src/glibc-2.37/build/libc_pic.a(memcmp.os)
 .note.gnu.property
                0x0000000000000000       0x30 /sources/glibc/src/glibc-2.37/build/libc_pic.a(memcpy.os)
 .note.gnu.property
                0x0000000000000000       0x30 /sources/glibc/src/glibc-2.37/build/libc_pic.a(memmove.os)
 .note.gnu.property
                0x0000000000000000       0x30 /sources/glibc/src/glibc-2.37/build/libc_pic.a(mempcpy.os)
 .note.gnu.property
                0x0000000000000000       0x30 /sources/glibc/src/glibc-2.37/build/libc_pic.a(memset.os)
 .note.gnu.property
                0x0000000000000000       0x30 /sources/glibc/src/glibc-2.37/build/libc_pic.a(rawmemchr.os)
 .note.gnu.property
                0x0000000000000000       0x30 /sources/glibc/src/glibc-2.37/build/libc_pic.a(stpcpy.os)
 .note.gnu.property
                0x0000000000000000       0x30 /sources/glibc/src/glibc-2.37/build/libc_pic.a(strchr.os)
 .note.gnu.property
                0x0000000000000000       0x30 /sources/glibc/src/glibc-2.37/build/libc_pic.a(strcmp.os)
 .note.gnu.property
                0x0000000000000000       0x30 /sources/glibc/src/glibc-2.37/build/libc_pic.a(strcspn.os)
 .note.gnu.property
                0x0000000000000000       0x30 /sources/glibc/src/glibc-2.37/build/libc_pic.a(strdup.os)
 .note.gnu.property
                0x0000000000000000       0x30 /sources/glibc/src/glibc-2.37/build/libc_pic.a(strerrorname_np.os)
 .note.gnu.property
                0x0000000000000000       0x30 /sources/glibc/src/glibc-2.37/build/libc_pic.a(strlen.os)
 .note.gnu.property
                0x0000000000000000       0x30 /sources/glibc/src/glibc-2.37/build/libc_pic.a(strncmp.os)
 .note.gnu.property
                0x0000000000000000       0x30 /sources/glibc/src/glibc-2.37/build/libc_pic.a(strnlen.os)
 .note.gnu.property
                0x0000000000000000       0x30 /sources/glibc/src/glibc-2.37/build/libc_pic.a(memchr-avx2.os)
 .note.gnu.property
                0x0000000000000000       0x30 /sources/glibc/src/glibc-2.37/build/libc_pic.a(memchr-avx2-rtm.os)
 .note.gnu.property
                0x0000000000000000       0x30 /sources/glibc/src/glibc-2.37/build/libc_pic.a(memchr-evex.os)
 .note.gnu.property
                0x0000000000000000       0x30 /sources/glibc/src/glibc-2.37/build/libc_pic.a(memchr-evex-rtm.os)
 .note.gnu.property
                0x0000000000000000       0x30 /sources/glibc/src/glibc-2.37/build/libc_pic.a(memchr-sse2.os)
 .note.gnu.property
                0x0000000000000000       0x30 /sources/glibc/src/glibc-2.37/build/libc_pic.a(memcmp-avx2-movbe.os)
 .note.gnu.property
                0x0000000000000000       0x30 /sources/glibc/src/glibc-2.37/build/libc_pic.a(memcmp-avx2-movbe-rtm.os)
 .note.gnu.property
                0x0000000000000000       0x30 /sources/glibc/src/glibc-2.37/build/libc_pic.a(memcmp-evex-movbe.os)
 .note.gnu.property
                0x0000000000000000       0x30 /sources/glibc/src/glibc-2.37/build/libc_pic.a(memcmp-sse2.os)
 .note.gnu.property
                0x0000000000000000       0x30 /sources/glibc/src/glibc-2.37/build/libc_pic.a(memmove-avx-unaligned-erms.os)
 .note.gnu.property
                0x0000000000000000       0x30 /sources/glibc/src/glibc-2.37/build/libc_pic.a(memmove-avx-unaligned-erms-rtm.os)
 .note.gnu.property
                0x0000000000000000       0x30 /sources/glibc/src/glibc-2.37/build/libc_pic.a(memmove-avx512-no-vzeroupper.os)
 .note.gnu.property
                0x0000000000000000       0x30 /sources/glibc/src/glibc-2.37/build/libc_pic.a(memmove-avx512-unaligned-erms.os)
 .note.gnu.property
                0x0000000000000000       0x30 /sources/glibc/src/glibc-2.37/build/libc_pic.a(memmove-erms.os)
 .note.gnu.property
                0x0000000000000000       0x30 /sources/glibc/src/glibc-2.37/build/libc_pic.a(memmove-evex-unaligned-erms.os)
 .note.gnu.property
                0x0000000000000000       0x30 /sources/glibc/src/glibc-2.37/build/libc_pic.a(memmove-sse2-unaligned-erms.os)
 .note.gnu.property
                0x0000000000000000       0x30 /sources/glibc/src/glibc-2.37/build/libc_pic.a(memmove-ssse3.os)
 .note.gnu.property
                0x0000000000000000       0x30 /sources/glibc/src/glibc-2.37/build/libc_pic.a(memset-avx2-unaligned-erms.os)
 .note.gnu.property
                0x0000000000000000       0x30 /sources/glibc/src/glibc-2.37/build/libc_pic.a(memset-avx2-unaligned-erms-rtm.os)
 .note.gnu.property
                0x0000000000000000       0x30 /sources/glibc/src/glibc-2.37/build/libc_pic.a(memset-avx512-no-vzeroupper.os)
 .note.gnu.property
                0x0000000000000000       0x30 /sources/glibc/src/glibc-2.37/build/libc_pic.a(memset-avx512-unaligned-erms.os)
 .note.gnu.property
                0x0000000000000000       0x30 /sources/glibc/src/glibc-2.37/build/libc_pic.a(memset-erms.os)
 .note.gnu.property
                0x0000000000000000       0x30 /sources/glibc/src/glibc-2.37/build/libc_pic.a(memset-evex-unaligned-erms.os)
 .note.gnu.property
                0x0000000000000000       0x30 /sources/glibc/src/glibc-2.37/build/libc_pic.a(memset-sse2-unaligned-erms.os)
 .note.gnu.property
                0x0000000000000000       0x30 /sources/glibc/src/glibc-2.37/build/libc_pic.a(rawmemchr-avx2.os)
 .note.gnu.property
                0x0000000000000000       0x30 /sources/glibc/src/glibc-2.37/build/libc_pic.a(rawmemchr-avx2-rtm.os)
 .note.gnu.property
                0x0000000000000000       0x30 /sources/glibc/src/glibc-2.37/build/libc_pic.a(rawmemchr-evex.os)
 .note.gnu.property
                0x0000000000000000       0x30 /sources/glibc/src/glibc-2.37/build/libc_pic.a(rawmemchr-evex-rtm.os)
 .note.gnu.property
                0x0000000000000000       0x30 /sources/glibc/src/glibc-2.37/build/libc_pic.a(rawmemchr-sse2.os)
 .note.gnu.property
                0x0000000000000000       0x30 /sources/glibc/src/glibc-2.37/build/libc_pic.a(stpcpy-avx2.os)
 .note.gnu.property
                0x0000000000000000       0x30 /sources/glibc/src/glibc-2.37/build/libc_pic.a(stpcpy-avx2-rtm.os)
 .note.gnu.property
                0x0000000000000000       0x30 /sources/glibc/src/glibc-2.37/build/libc_pic.a(stpcpy-evex.os)
 .note.gnu.property
                0x0000000000000000       0x30 /sources/glibc/src/glibc-2.37/build/libc_pic.a(stpcpy-sse2.os)
 .note.gnu.property
                0x0000000000000000       0x30 /sources/glibc/src/glibc-2.37/build/libc_pic.a(stpcpy-sse2-unaligned.os)
 .note.gnu.property
                0x0000000000000000       0x30 /sources/glibc/src/glibc-2.37/build/libc_pic.a(strchr-avx2.os)
 .note.gnu.property
                0x0000000000000000       0x30 /sources/glibc/src/glibc-2.37/build/libc_pic.a(strchr-avx2-rtm.os)
 .note.gnu.property
                0x0000000000000000       0x30 /sources/glibc/src/glibc-2.37/build/libc_pic.a(strchr-evex.os)
 .note.gnu.property
                0x0000000000000000       0x30 /sources/glibc/src/glibc-2.37/build/libc_pic.a(strchr-sse2.os)
 .note.gnu.property
                0x0000000000000000       0x30 /sources/glibc/src/glibc-2.37/build/libc_pic.a(strchr-sse2-no-bsf.os)
 .note.gnu.property
                0x0000000000000000       0x30 /sources/glibc/src/glibc-2.37/build/libc_pic.a(strcmp-avx2.os)
 .note.gnu.property
                0x0000000000000000       0x30 /sources/glibc/src/glibc-2.37/build/libc_pic.a(strcmp-avx2-rtm.os)
 .note.gnu.property
                0x0000000000000000       0x30 /sources/glibc/src/glibc-2.37/build/libc_pic.a(strcmp-evex.os)
 .note.gnu.property
                0x0000000000000000       0x30 /sources/glibc/src/glibc-2.37/build/libc_pic.a(strcmp-sse2.os)
 .note.gnu.property
                0x0000000000000000       0x30 /sources/glibc/src/glibc-2.37/build/libc_pic.a(strcmp-sse2-unaligned.os)
 .note.gnu.property
                0x0000000000000000       0x30 /sources/glibc/src/glibc-2.37/build/libc_pic.a(strcmp-sse4_2.os)
 .note.gnu.property
                0x0000000000000000       0x30 /sources/glibc/src/glibc-2.37/build/libc_pic.a(strcspn-sse4.os)
 .note.gnu.property
                0x0000000000000000       0x30 /sources/glibc/src/glibc-2.37/build/libc_pic.a(strlen-avx2.os)
 .note.gnu.property
                0x0000000000000000       0x30 /sources/glibc/src/glibc-2.37/build/libc_pic.a(strlen-avx2-rtm.os)
 .note.gnu.property
                0x0000000000000000       0x30 /sources/glibc/src/glibc-2.37/build/libc_pic.a(strlen-evex.os)
 .note.gnu.property
                0x0000000000000000       0x30 /sources/glibc/src/glibc-2.37/build/libc_pic.a(strlen-sse2.os)
 .note.gnu.property
                0x0000000000000000       0x30 /sources/glibc/src/glibc-2.37/build/libc_pic.a(strncmp-avx2.os)
 .note.gnu.property
                0x0000000000000000       0x30 /sources/glibc/src/glibc-2.37/build/libc_pic.a(strncmp-avx2-rtm.os)
 .note.gnu.property
                0x0000000000000000       0x30 /sources/glibc/src/glibc-2.37/build/libc_pic.a(strncmp-evex.os)
 .note.gnu.property
                0x0000000000000000       0x30 /sources/glibc/src/glibc-2.37/build/libc_pic.a(strncmp-sse2.os)
 .note.gnu.property
                0x0000000000000000       0x30 /sources/glibc/src/glibc-2.37/build/libc_pic.a(strncmp-sse4_2.os)
 .note.gnu.property
                0x0000000000000000       0x30 /sources/glibc/src/glibc-2.37/build/libc_pic.a(strnlen-avx2.os)
 .note.gnu.property
                0x0000000000000000       0x30 /sources/glibc/src/glibc-2.37/build/libc_pic.a(strnlen-avx2-rtm.os)
 .note.gnu.property
                0x0000000000000000       0x30 /sources/glibc/src/glibc-2.37/build/libc_pic.a(strnlen-evex.os)
 .note.gnu.property
                0x0000000000000000       0x30 /sources/glibc/src/glibc-2.37/build/libc_pic.a(strnlen-sse2.os)
 .note.gnu.property
                0x0000000000000000       0x30 /sources/glibc/src/glibc-2.37/build/libc_pic.a(varshift.os)
 .note.gnu.property
                0x0000000000000000       0x30 /sources/glibc/src/glibc-2.37/build/libc_pic.a(strcspn-generic.os)
 .note.gnu.property
                0x0000000000000000       0x30 /sources/glibc/src/glibc-2.37/build/libc_pic.a(cacheinfo.os)
 .note.gnu.property
                0x0000000000000000       0x30 /sources/glibc/src/glibc-2.37/build/libc_pic.a(closedir.os)
 .note.gnu.property
                0x0000000000000000       0x30 /sources/glibc/src/glibc-2.37/build/libc_pic.a(rewinddir.os)
 .note.gnu.property
                0x0000000000000000       0x30 /sources/glibc/src/glibc-2.37/build/libc_pic.a(readdir64.os)
 .note.gnu.property
                0x0000000000000000       0x30 /sources/glibc/src/glibc-2.37/build/libc_pic.a(fdopendir.os)
 .note.gnu.property
                0x0000000000000000       0x30 /sources/glibc/src/glibc-2.37/build/libc_pic.a(uname.os)
 .note.gnu.property
                0x0000000000000000       0x30 /sources/glibc/src/glibc-2.37/build/libc_pic.a(_exit.os)
 .note.gnu.property
                0x0000000000000000       0x30 /sources/glibc/src/glibc-2.37/build/libc_pic.a(getpid.os)
 .note.gnu.property
                0x0000000000000000       0x30 /sources/glibc/src/glibc-2.37/build/libc_pic.a(environ.os)
 .note.gnu.property
                0x0000000000000000       0x30 /sources/glibc/src/glibc-2.37/build/libc_pic.a(stat64.os)
 .note.gnu.property
                0x0000000000000000       0x30 /sources/glibc/src/glibc-2.37/build/libc_pic.a(fstat64.os)
 .note.gnu.property
                0x0000000000000000       0x30 /sources/glibc/src/glibc-2.37/build/libc_pic.a(lstat64.os)
 .note.gnu.property
                0x0000000000000000       0x30 /sources/glibc/src/glibc-2.37/build/libc_pic.a(fstatat64.os)
 .note.gnu.property
                0x0000000000000000       0x30 /sources/glibc/src/glibc-2.37/build/libc_pic.a(openat64.os)
 .note.gnu.property
                0x0000000000000000       0x30 /sources/glibc/src/glibc-2.37/build/libc_pic.a(lseek64.os)
 .note.gnu.property
                0x0000000000000000       0x30 /sources/glibc/src/glibc-2.37/build/libc_pic.a(access.os)
 .note.gnu.property
                0x0000000000000000       0x30 /sources/glibc/src/glibc-2.37/build/libc_pic.a(close_nocancel.os)
 .note.gnu.property
                0x0000000000000000       0x30 /sources/glibc/src/glibc-2.37/build/libc_pic.a(fcntl_nocancel.os)
 .note.gnu.property
                0x0000000000000000       0x30 /sources/glibc/src/glibc-2.37/build/libc_pic.a(open64_nocancel.os)
 .note.gnu.property
                0x0000000000000000       0x30 /sources/glibc/src/glibc-2.37/build/libc_pic.a(read_nocancel.os)
 .note.gnu.property
                0x0000000000000000       0x30 /sources/glibc/src/glibc-2.37/build/libc_pic.a(pread64_nocancel.os)
 .note.gnu.property
                0x0000000000000000       0x30 /sources/glibc/src/glibc-2.37/build/libc_pic.a(write_nocancel.os)
 .note.gnu.property
                0x0000000000000000       0x30 /sources/glibc/src/glibc-2.37/build/libc_pic.a(mmap64.os)
 .note.gnu.property
                0x0000000000000000       0x30 /sources/glibc/src/glibc-2.37/build/libc_pic.a(munmap.os)
 .note.gnu.property
                0x0000000000000000       0x30 /sources/glibc/src/glibc-2.37/build/libc_pic.a(mprotect.os)
 .note.gnu.property
                0x0000000000000000       0x30 /sources/glibc/src/glibc-2.37/build/libc_pic.a(single_threaded.os)
 .note.gnu.property
                0x0000000000000000       0x30 /sources/glibc/src/glibc-2.37/build/libc_pic.a(profil.os)
 .note.gnu.property
                0x0000000000000000       0x30 /sources/glibc/src/glibc-2.37/build/libc_pic.a(prof-freq.os)
 .note.gnu.property
                0x0000000000000000       0x30 /sources/glibc/src/glibc-2.37/build/libc_pic.a(dl-addr-obj.os)
 .note.gnu.property
                0x0000000000000000       0x30 /sources/glibc/src/glibc-2.37/build/libc_pic.a(sigaction.os)
 .note.gnu.property
                0x0000000000000000       0x30 /sources/glibc/src/glibc-2.37/build/libc_pic.a(libc_sigaction.os)
 .note.gnu.property
                0x0000000000000000       0x30 /sources/glibc/src/glibc-2.37/build/libc_pic.a(errname.os)
 .note.gnu.property
                0x0000000000000000       0x30 /sources/glibc/src/glibc-2.37/build/libc_pic.a(strchrnul.os)
 .note.gnu.property
                0x0000000000000000       0x30 /sources/glibc/src/glibc-2.37/build/libc_pic.a(strchrnul-avx2.os)
 .note.gnu.property
                0x0000000000000000       0x30 /sources/glibc/src/glibc-2.37/build/libc_pic.a(strchrnul-avx2-rtm.os)
 .note.gnu.property
                0x0000000000000000       0x30 /sources/glibc/src/glibc-2.37/build/libc_pic.a(strchrnul-evex.os)
 .note.gnu.property
                0x0000000000000000       0x30 /sources/glibc/src/glibc-2.37/build/libc_pic.a(strchrnul-sse2.os)
 .note.gnu.property
                0x0000000000000000       0x30 /sources/glibc/src/glibc-2.37/build/libc_pic.a(setitimer.os)
 .note.gnu.property
                0x0000000000000000       0x30 /sources/glibc/src/glibc-2.37/build/libc_pic.a(getdents64.os)

Memory Configuration

Name             Origin             Length             Attributes
*default*        0x0000000000000000 0xffffffffffffffff

Linker script and memory map

LOAD /sources/glibc/src/glibc-2.37/build/elf/librtld.mapT.o
START GROUP
LOAD /sources/glibc/src/glibc-2.37/build/elf/dl-allobjs.os
LOAD /sources/glibc/src/glibc-2.37/build/libc_pic.a
LOAD /usr/lib/gcc/x86_64-lfs-linux-gnu/12.2.0/libgcc.a
END GROUP

.interp
 *(.interp)

.note.gnu.property
                0x0000000000000000       0x30
 .note.gnu.property
                0x0000000000000000       0x30 /sources/glibc/src/glibc-2.37/build/elf/librtld.mapT.o

.note.gnu.build-id
 *(.note.gnu.build-id)

.hash
 *(.hash)

.gnu.hash
 *(.gnu.hash)

.dynsym
 *(.dynsym)

.dynstr
 *(.dynstr)

.gnu.version
 *(.gnu.version)

.gnu.version_d
 *(.gnu.version_d)

.gnu.version_r
 *(.gnu.version_r)

.rela.init
 *(.rela.init)

.rela.text
 *(.rela.text)

.rela.fini
 *(.rela.fini)

.rela.rodata
 *(.rela.rodata)

.rela.data.rel.ro
 *(.rela.data.rel.ro)

.rela.data
 *(.rela.data)

.rela.tdata
 *(.rela.tdata)

.rela.tbss
 *(.rela.tbss)

.rela.ctors
 *(.rela.ctors)

.rela.dtors
 *(.rela.dtors)

.rela.got
 *(.rela.got)

.rela.bss
 *(.rela.bss)

.rela.ldata
 *(.rela.ldata)

.rela.lbss
 *(.rela.lbss)

.rela.lrodata
 *(.rela.lrodata)

.rela.ifunc
 *(.rela.ifunc)

.rela.plt
 *(.rela.plt)

.relr.dyn
 *(.relr.dyn)

.init
 *(SORT_NONE(.init))

.plt
 *(.plt)

.plt.got
 *(.plt.got)

.plt.sec
 *(.plt.sec)

.text           0x0000000000000000    0x255d4
 *(.text .stub)
 .text          0x0000000000000000        0x0 /sources/glibc/src/glibc-2.37/build/elf/librtld.mapT.o
                0x0000000000000000                __stack_chk_fail_local
                0x0000000000000000                malloc
                0x0000000000000000                __libc_assert_fail
                0x0000000000000000                __stack_chk_fail
                0x0000000000000000                calloc
                0x0000000000000000                __GI___pthread_enable_asynccancel
                0x0000000000000000                realloc
                0x0000000000000000                __GI___pthread_disable_asynccancel
                0x0000000000000000                __pthread_enable_asynccancel
                0x0000000000000000                __pthread_disable_asynccancel
                0x0000000000000000                free
 .text          0x0000000000000000    0x1e88d /sources/glibc/src/glibc-2.37/build/elf/dl-allobjs.os
                0x0000000000000000                _dl_call_libc_early_init
                0x0000000000000080                _dl_call_fini
                0x00000000000001b0                _dl_signal_exception
                0x00000000000001b0                __GI__dl_signal_exception
                0x0000000000000210                __GI__dl_signal_error
                0x0000000000000210                _dl_signal_error
                0x0000000000000280                _dl_signal_cexception
                0x0000000000000300                _dl_signal_cerror
                0x0000000000000380                _dl_receive_error
                0x0000000000000410                _dl_catch_exception
                0x0000000000000410                __GI__dl_catch_exception
                0x0000000000000590                _dl_catch_error
                0x00000000000006f0                _dl_close_worker
                0x0000000000001460                _dl_close
                0x00000000000014d0                _dl_debug_state
                0x00000000000014d0                __GI__dl_debug_state
                0x00000000000014e0                _dl_debug_update
                0x0000000000001530                _dl_debug_initialize
                0x00000000000016e0                _dl_map_object_deps
                0x00000000000026b0                _dl_error_free
                0x00000000000026d0                _dl_exception_create
                0x00000000000026d0                __GI__dl_exception_create
                0x00000000000027a0                __GI__dl_exception_create_format
                0x00000000000027a0                _dl_exception_create_format
                0x0000000000002c10                _dl_exception_free
                0x0000000000002c10                __GI__dl_exception_free
                0x0000000000002c30                _dl_make_stacks_executable
                0x0000000000002da0                __GI___nptl_change_stack_perm
                0x0000000000002da0                __nptl_change_stack_perm
                0x0000000000002fe0                __GI__dl_find_object
                0x0000000000002fe0                _dl_find_object
                0x0000000000003320                _dlfo_sort_mappings
                0x00000000000033c0                _dl_find_object_init
                0x0000000000003570                _dl_find_object_update
                0x0000000000003a60                _dl_find_object_dlclose
                0x0000000000003b30                _dl_find_object_freeres
                0x0000000000003ba0                _dl_fini
                0x0000000000003f50                _dl_init
                0x0000000000004de0                _dl_dst_count
                0x0000000000004e80                _dl_dst_substitute
                0x00000000000055e0                _dl_init_paths
                0x0000000000005910                _dl_process_pt_gnu_property
                0x0000000000007250                _dl_map_object
                0x0000000000007d60                _dl_rtld_di_serinfo
                0x0000000000008cd0                _dl_lookup_symbol_x
                0x00000000000098a0                _dl_lookup_direct
                0x0000000000009a40                __minimal_malloc
                0x0000000000009b60                __minimal_calloc
                0x0000000000009ba0                __minimal_free
                0x0000000000009be0                __minimal_realloc
                0x0000000000009c70                _dl_sysdep_read_whole_file
                0x0000000000009d00                _dl_name_match_p
                0x0000000000009d60                _dl_higher_prime_number
                0x0000000000009db0                _dl_strtoul
                0x0000000000009f10                _dl_add_to_namespace_list
                0x0000000000009fb0                _dl_new_object
                0x000000000000a7f0                __GI__dl_find_dso_for_object
                0x000000000000a7f0                _dl_find_dso_for_object
                0x000000000000a8c0                _dl_open
                0x000000000000abb0                _dl_show_scope
                0x000000000000b730                _dl_get_origin
                0x000000000000bf50                _dl_debug_printf
                0x000000000000c000                _dl_debug_printf_c
                0x000000000000c0b0                _dl_dprintf
                0x000000000000c150                _dl_printf
                0x000000000000c1f0                _dl_error_printf
                0x000000000000c290                _dl_fatal_printf
                0x000000000000c290                __GI__dl_fatal_printf
                0x000000000000c330                _dl_start_profile
                0x000000000000ca80                __GI__dl_mcount
                0x000000000000ca80                _dl_mcount
                0x000000000000cc60                _dl_try_allocate_static_tls
                0x000000000000cd80                _dl_allocate_static_tls
                0x000000000000cdb0                _dl_protect_relro
                0x000000000000ce10                _dl_reloc_bad_type
                0x000000000000cee0                _dl_relocate_object
                0x000000000000f0d0                _dl_fixup
                0x000000000000f370                _dl_profile_fixup
                0x000000000000f6a0                _dl_scope_free
                0x000000000000f770                _dl_setup_hash
                0x000000000000f910                _dl_sort_maps_init
                0x000000000000f940                _dl_sort_maps
                0x000000000000fda0                __thread_gscope_wait
                0x0000000000010230                _dl_tls_static_surplus_init
                0x00000000000102c0                _dl_assign_tls_modid
                0x00000000000103d0                _dl_count_modids
                0x0000000000010440                _dl_determine_tlsoffset
                0x0000000000010600                _dl_get_tls_static_info
                0x0000000000010620                _dl_allocate_tls_storage
                0x00000000000106c0                __GI__dl_allocate_tls_init
                0x00000000000106c0                _dl_allocate_tls_init
                0x0000000000010960                __GI__dl_allocate_tls
                0x0000000000010960                _dl_allocate_tls
                0x00000000000109a0                _dl_deallocate_tls
                0x00000000000109a0                __GI__dl_deallocate_tls
                0x0000000000010a20                _dl_update_slotinfo
                0x0000000000010c80                __GI___tls_get_addr
                0x0000000000010c80                ___tls_get_addr
                0x0000000000010cc0                _dl_tls_get_addr_soft
                0x0000000000010d40                _dl_add_to_slotinfo
                0x0000000000010e60                _dl_init_static_tls
                0x0000000000010f90                __tls_get_addr_slow
                0x0000000000010fd0                __tls_pre_init_tp
                0x0000000000011030                __tls_init_tp
                0x0000000000011160                _dl_runtime_profile_sse
                0x00000000000112f0                _dl_runtime_resolve_fxsave
                0x0000000000011370                _dl_runtime_resolve_xsave
                0x0000000000011440                _dl_runtime_resolve_xsavec
                0x0000000000011500                _dl_check_map_versions
                0x0000000000011de0                _dl_check_all_versions
                0x0000000000011e50                _dl_write
                0x0000000000011e60                _dl_cache_libcmp
                0x0000000000012670                _dl_load_cache_lookup
                0x00000000000129b0                _dl_unload_cache
                0x0000000000012b00                __GI___tunable_set_val
                0x0000000000012b20                __GI___tunables_init
                0x00000000000130f0                __GI___tunables_print
                0x0000000000013200                __tunable_get_val
                0x0000000000013200                __GI___tunable_get_val
                0x0000000000013270                _dl_make_tlsdesc_dynamic
                0x0000000000013520                _dl_unmap
                0x00000000000135a0                _dl_tlsdesc_return
                0x00000000000135b0                _dl_tlsdesc_undefweak
                0x00000000000135c0                _dl_tlsdesc_dynamic
                0x0000000000013660                __tls_get_addr
                0x00000000000157a0                __x86_cpu_features
                0x00000000000157c0                _dl_x86_init_cpu_features
                0x00000000000157e0                _dl_x86_get_cpu_features
                0x00000000000157f0                _dl_audit_activity_map
                0x0000000000015890                _dl_audit_activity_nsid
                0x00000000000158d0                _dl_audit_objsearch
                0x00000000000159a0                _dl_audit_objopen
                0x0000000000015a70                _dl_audit_objclose
                0x0000000000015b20                _dl_audit_preinit
                0x0000000000015bb0                _dl_audit_symbind_alt
                0x0000000000015bb0                __GI__dl_audit_symbind_alt
                0x0000000000015d90                _dl_audit_symbind
                0x0000000000016050                _dl_audit_pltenter
                0x0000000000016290                _dl_audit_pltexit
                0x0000000000016490                _dl_diagnostics_print_string
                0x0000000000016510                _dl_diagnostics_print_labeled_string
                0x0000000000016550                _dl_diagnostics_print_labeled_value
                0x0000000000016570                _dl_print_diagnostics
                0x0000000000016970                _dl_diagnostics_cpu
                0x0000000000017070                _dl_diagnostics_kernel
                0x0000000000017110                _dl_next_ld_env_entry
                0x0000000000017160                unsetenv
                0x0000000000017280                _dl_important_hwcaps
                0x0000000000017610                _dl_hwcaps_subdirs_active
                0x00000000000176f0                _dl_hwcaps_split
                0x0000000000017790                _dl_hwcaps_contains
                0x0000000000017840                _dl_hwcaps_split_masked
                0x0000000000017880                __rtld_libc_freeres
                0x0000000000017890                __rtld_malloc_init_stubs
                0x00000000000178d0                __sigjmp_save
                0x00000000000178e0                __strerror_r
                0x00000000000179d0                __GI___libc_fatal
                0x00000000000179d0                __libc_fatal
                0x00000000000179f0                __GI___chk_fail
                0x00000000000179f0                __chk_fail
                0x0000000000017a00                __GI___assert_fail
                0x0000000000017a00                __assert_fail
                0x0000000000017a30                __rtld_malloc_is_complete
                0x0000000000017b40                __rtld_malloc_init_real
                0x0000000000017c30                __GI___assert_perror_fail
                0x0000000000017c30                __assert_perror_fail
                0x0000000000017c90                _itoa
                0x0000000000017cf0                __strsep
                0x0000000000017cf0                strsep
                0x0000000000017cf0                __strsep_g
                0x0000000000017d80                __rtld_mutex_init
                0x0000000000018000                _dl_tunable_set_hwcaps
                0x00000000000189e0                _dl_sysdep_start
                0x0000000000018aa0                _dl_sysdep_start_cleanup
                0x0000000000018ab0                _dl_show_auxv
                0x0000000000018d00                _dl_usage
                0x0000000000018d50                _dl_version
                0x0000000000018d70                _dl_help
                0x0000000000019020                _start
                0x0000000000019028                _dl_start_user
                0x000000000001a350                handle_preload_list
                0x000000000001e030                __brk
                0x000000000001e030                brk
                0x000000000001e060                sbrk
                0x000000000001e060                __sbrk
                0x000000000001e0e0                __getcwd
                0x000000000001e0e0                getcwd
                0x000000000001e6d0                openat64
                0x000000000001e730                __alloc_dir
                0x000000000001e800                __opendir
                0x000000000001e800                opendir
 *fill*         0x000000000001e88d        0x3 
 .text          0x000000000001e890       0xe2 /sources/glibc/src/glibc-2.37/build/libc_pic.a(check_fds.os)
                0x000000000001e940                __libc_check_standard_fds
 .text          0x000000000001e972        0x0 /sources/glibc/src/glibc-2.37/build/libc_pic.a(errno.os)
 *fill*         0x000000000001e972        0xe 
 .text          0x000000000001e980       0x57 /sources/glibc/src/glibc-2.37/build/libc_pic.a(setjmp.os)
                0x000000000001e980                __sigsetjmp
                0x000000000001e980                __GI___sigsetjmp
 *fill*         0x000000000001e9d7        0x9 
 .text          0x000000000001e9e0       0x50 /sources/glibc/src/glibc-2.37/build/libc_pic.a(__longjmp.os)
                0x000000000001e9e0                __longjmp
 .text          0x000000000001ea30       0xe4 /sources/glibc/src/glibc-2.37/build/libc_pic.a(lowlevellock.os)
                0x000000000001ea30                __GI___lll_lock_wait_private
                0x000000000001ea30                __lll_lock_wait_private
                0x000000000001ea80                __lll_lock_wait
                0x000000000001ea80                __GI___lll_lock_wait
                0x000000000001eae0                __lll_lock_wake_private
                0x000000000001eae0                __GI___lll_lock_wake_private
                0x000000000001eb00                __lll_lock_wake
                0x000000000001eb00                __GI___lll_lock_wake
 *fill*         0x000000000001eb14        0xc 
 .text          0x000000000001eb20       0xa5 /sources/glibc/src/glibc-2.37/build/libc_pic.a(scratch_buffer_set_array_size.os)
                0x000000000001eb20                __libc_scratch_buffer_set_array_size
                0x000000000001eb20                __GI___libc_scratch_buffer_set_array_size
 *fill*         0x000000000001ebc5        0xb 
 .text          0x000000000001ebd0       0x7d /sources/glibc/src/glibc-2.37/build/libc_pic.a(memchr.os)
                0x000000000001ebd0                __GI_memchr
                0x000000000001ebd0                memchr
                0x000000000001ebd0                __memchr
 *fill*         0x000000000001ec4d        0x3 
 .text          0x000000000001ec50       0x71 /sources/glibc/src/glibc-2.37/build/libc_pic.a(memcmp.os)
                0x000000000001ec50                bcmp
                0x000000000001ec50                __GI_memcmp
                0x000000000001ec50                memcmp
 *fill*         0x000000000001ecc1        0xf 
 .text          0x000000000001ecd0      0x109 /sources/glibc/src/glibc-2.37/build/libc_pic.a(memcpy.os)
                0x000000000001ecd0                __GI_memcpy
                0x000000000001ecd0                __new_memcpy
                0x000000000001ecd0                memcpy@@GLIBC_2.14
 *fill*         0x000000000001edd9        0x7 
 .text          0x000000000001ede0      0x109 /sources/glibc/src/glibc-2.37/build/libc_pic.a(memmove.os)
                0x000000000001ede0                memmove
                0x000000000001ede0                __GI_memmove
                0x000000000001ede0                __libc_memmove
 *fill*         0x000000000001eee9        0x7 
 .text          0x000000000001eef0      0x109 /sources/glibc/src/glibc-2.37/build/libc_pic.a(mempcpy.os)
                0x000000000001eef0                mempcpy
                0x000000000001eef0                __GI_mempcpy
                0x000000000001eef0                __mempcpy
                0x000000000001eef0                __GI___mempcpy
 *fill*         0x000000000001eff9        0x7 
 .text          0x000000000001f000       0xf1 /sources/glibc/src/glibc-2.37/build/libc_pic.a(memset.os)
                0x000000000001f000                __GI_memset
                0x000000000001f000                memset
 *fill*         0x000000000001f0f1        0xf 
 .text          0x000000000001f100       0x7d /sources/glibc/src/glibc-2.37/build/libc_pic.a(rawmemchr.os)
                0x000000000001f100                __GI___rawmemchr
                0x000000000001f100                __rawmemchr
                0x000000000001f100                rawmemchr
 *fill*         0x000000000001f17d        0x3 
 .text          0x000000000001f180       0x71 /sources/glibc/src/glibc-2.37/build/libc_pic.a(stpcpy.os)
                0x000000000001f180                stpcpy
                0x000000000001f180                __GI_stpcpy
                0x000000000001f180                __stpcpy
                0x000000000001f180                __GI___stpcpy
 *fill*         0x000000000001f1f1        0xf 
 .text          0x000000000001f200       0x78 /sources/glibc/src/glibc-2.37/build/libc_pic.a(strchr.os)
                0x000000000001f200                __GI_strchr
                0x000000000001f200                index
                0x000000000001f200                strchr
 *fill*         0x000000000001f278        0x8 
 .text          0x000000000001f280       0x88 /sources/glibc/src/glibc-2.37/build/libc_pic.a(strcmp.os)
                0x000000000001f280                __GI_strcmp
                0x000000000001f280                strcmp
 *fill*         0x000000000001f308        0x8 
 .text          0x000000000001f310       0x21 /sources/glibc/src/glibc-2.37/build/libc_pic.a(strcspn.os)
                0x000000000001f310                strcspn
                0x000000000001f310                __GI_strcspn
 *fill*         0x000000000001f331        0xf 
 .text          0x000000000001f340       0x39 /sources/glibc/src/glibc-2.37/build/libc_pic.a(strdup.os)
                0x000000000001f340                __GI___strdup
                0x000000000001f340                __strdup
                0x000000000001f340                strdup
 *fill*         0x000000000001f379        0x7 
 .text          0x000000000001f380        0x5 /sources/glibc/src/glibc-2.37/build/libc_pic.a(strerrorname_np.os)
                0x000000000001f380                strerrorname_np
 *fill*         0x000000000001f385        0xb 
 .text          0x000000000001f390       0x81 /sources/glibc/src/glibc-2.37/build/libc_pic.a(strlen.os)
                0x000000000001f390                strlen
                0x000000000001f390                __GI_strlen
 *fill*         0x000000000001f411        0xf 
 .text          0x000000000001f420       0x91 /sources/glibc/src/glibc-2.37/build/libc_pic.a(strncmp.os)
                0x000000000001f420                __GI_strncmp
                0x000000000001f420                strncmp
 *fill*         0x000000000001f4b1        0xf 
 .text          0x000000000001f4c0       0x81 /sources/glibc/src/glibc-2.37/build/libc_pic.a(strnlen.os)
                0x000000000001f4c0                __strnlen
                0x000000000001f4c0                strnlen
                0x000000000001f4c0                __GI___strnlen
                0x000000000001f4c0                __GI_strnlen
 .text          0x000000000001f541        0x0 /sources/glibc/src/glibc-2.37/build/libc_pic.a(memchr-avx2.os)
 .text          0x000000000001f541        0x0 /sources/glibc/src/glibc-2.37/build/libc_pic.a(memchr-avx2-rtm.os)
 .text          0x000000000001f541        0x0 /sources/glibc/src/glibc-2.37/build/libc_pic.a(memchr-evex.os)
 .text          0x000000000001f541        0x0 /sources/glibc/src/glibc-2.37/build/libc_pic.a(memchr-evex-rtm.os)
 *fill*         0x000000000001f541        0xf 
 .text          0x000000000001f550      0x323 /sources/glibc/src/glibc-2.37/build/libc_pic.a(memchr-sse2.os)
                0x000000000001f550                __memchr_sse2
 .text          0x000000000001f873        0x0 /sources/glibc/src/glibc-2.37/build/libc_pic.a(memcmp-avx2-movbe.os)
 .text          0x000000000001f873        0x0 /sources/glibc/src/glibc-2.37/build/libc_pic.a(memcmp-avx2-movbe-rtm.os)
 .text          0x000000000001f873        0x0 /sources/glibc/src/glibc-2.37/build/libc_pic.a(memcmp-evex-movbe.os)
 *fill*         0x000000000001f873        0xd 
 .text          0x000000000001f880      0x2d0 /sources/glibc/src/glibc-2.37/build/libc_pic.a(memcmp-sse2.os)
                0x000000000001f880                __memcmp_sse2
 .text          0x000000000001fb50        0x0 /sources/glibc/src/glibc-2.37/build/libc_pic.a(memmove-avx-unaligned-erms.os)
 .text          0x000000000001fb50        0x0 /sources/glibc/src/glibc-2.37/build/libc_pic.a(memmove-avx-unaligned-erms-rtm.os)
 .text          0x000000000001fb50        0x0 /sources/glibc/src/glibc-2.37/build/libc_pic.a(memmove-avx512-no-vzeroupper.os)
 .text          0x000000000001fb50        0x0 /sources/glibc/src/glibc-2.37/build/libc_pic.a(memmove-avx512-unaligned-erms.os)
 .text          0x000000000001fb50       0x5d /sources/glibc/src/glibc-2.37/build/libc_pic.a(memmove-erms.os)
                0x000000000001fb50                __mempcpy_chk_erms
                0x000000000001fb60                __mempcpy_erms
                0x000000000001fb70                __memcpy_chk_erms
                0x000000000001fb70                __memmove_chk_erms
                0x000000000001fb80                __memmove_erms
                0x000000000001fb80                __memcpy_erms
 .text          0x000000000001fbad        0x0 /sources/glibc/src/glibc-2.37/build/libc_pic.a(memmove-evex-unaligned-erms.os)
 *fill*         0x000000000001fbad       0x13 
 .text          0x000000000001fbc0      0x612 /sources/glibc/src/glibc-2.37/build/libc_pic.a(memmove-sse2-unaligned-erms.os)
                0x000000000001fbc0                __mempcpy_chk_sse2_unaligned
                0x000000000001fbd0                __mempcpy_sse2_unaligned
                0x000000000001fbe0                __memcpy_chk_sse2_unaligned
                0x000000000001fbe0                __memmove_chk_sse2_unaligned
                0x000000000001fbf0                __memmove_sse2_unaligned
                0x000000000001fbf0                __memcpy_sse2_unaligned
                0x000000000001fbf0                memcpy@GLIBC_2.2.5
                0x000000000001fc20                __mempcpy_chk_sse2_unaligned_erms
                0x000000000001fc30                __mempcpy_sse2_unaligned_erms
                0x000000000001fc40                __memmove_chk_sse2_unaligned_erms
                0x000000000001fc40                __memcpy_chk_sse2_unaligned_erms
                0x000000000001fc80                __memmove_sse2_unaligned_erms
                0x000000000001fc80                __memcpy_sse2_unaligned_erms
 .text          0x00000000000201d2        0x0 /sources/glibc/src/glibc-2.37/build/libc_pic.a(memmove-ssse3.os)
 .text          0x00000000000201d2        0x0 /sources/glibc/src/glibc-2.37/build/libc_pic.a(memset-avx2-unaligned-erms.os)
 .text          0x00000000000201d2        0x0 /sources/glibc/src/glibc-2.37/build/libc_pic.a(memset-avx2-unaligned-erms-rtm.os)
 .text          0x00000000000201d2        0x0 /sources/glibc/src/glibc-2.37/build/libc_pic.a(memset-avx512-no-vzeroupper.os)
 .text          0x00000000000201d2        0x0 /sources/glibc/src/glibc-2.37/build/libc_pic.a(memset-avx512-unaligned-erms.os)
 *fill*         0x00000000000201d2        0xe 
 .text          0x00000000000201e0       0x29 /sources/glibc/src/glibc-2.37/build/libc_pic.a(memset-erms.os)
                0x00000000000201e0                __memset_chk_erms
                0x00000000000201f0                __memset_erms
 .text          0x0000000000020209        0x0 /sources/glibc/src/glibc-2.37/build/libc_pic.a(memset-evex-unaligned-erms.os)
 *fill*         0x0000000000020209       0x37 
 .text          0x0000000000020240      0x179 /sources/glibc/src/glibc-2.37/build/libc_pic.a(memset-sse2-unaligned-erms.os)
                0x0000000000020240                __wmemset_chk_sse2_unaligned
                0x0000000000020250                __wmemset_sse2_unaligned
                0x0000000000020270                __memset_chk_sse2_unaligned
                0x0000000000020280                __memset_sse2_unaligned
                0x00000000000202b0                __memset_chk_sse2_unaligned_erms
                0x00000000000202c0                __memset_sse2_unaligned_erms
 .text          0x00000000000203b9        0x0 /sources/glibc/src/glibc-2.37/build/libc_pic.a(rawmemchr-avx2.os)
 .text          0x00000000000203b9        0x0 /sources/glibc/src/glibc-2.37/build/libc_pic.a(rawmemchr-avx2-rtm.os)
 .text          0x00000000000203b9        0x0 /sources/glibc/src/glibc-2.37/build/libc_pic.a(rawmemchr-evex.os)
 .text          0x00000000000203b9        0x0 /sources/glibc/src/glibc-2.37/build/libc_pic.a(rawmemchr-evex-rtm.os)
 *fill*         0x00000000000203b9        0x7 
 .text          0x00000000000203c0      0x1f9 /sources/glibc/src/glibc-2.37/build/libc_pic.a(rawmemchr-sse2.os)
                0x00000000000203c0                __rawmemchr_sse2
 .text          0x00000000000205b9        0x0 /sources/glibc/src/glibc-2.37/build/libc_pic.a(stpcpy-avx2.os)
 .text          0x00000000000205b9        0x0 /sources/glibc/src/glibc-2.37/build/libc_pic.a(stpcpy-avx2-rtm.os)
 .text          0x00000000000205b9        0x0 /sources/glibc/src/glibc-2.37/build/libc_pic.a(stpcpy-evex.os)
 *fill*         0x00000000000205b9        0x7 
 .text          0x00000000000205c0       0xdc /sources/glibc/src/glibc-2.37/build/libc_pic.a(stpcpy-sse2.os)
                0x00000000000205c0                __stpcpy_sse2
 *fill*         0x000000000002069c        0x4 
 .text          0x00000000000206a0      0x6b0 /sources/glibc/src/glibc-2.37/build/libc_pic.a(stpcpy-sse2-unaligned.os)
                0x00000000000206a0                __stpcpy_sse2_unaligned
 .text          0x0000000000020d50        0x0 /sources/glibc/src/glibc-2.37/build/libc_pic.a(strchr-avx2.os)
 .text          0x0000000000020d50        0x0 /sources/glibc/src/glibc-2.37/build/libc_pic.a(strchr-avx2-rtm.os)
 .text          0x0000000000020d50        0x0 /sources/glibc/src/glibc-2.37/build/libc_pic.a(strchr-evex.os)
 .text          0x0000000000020d50      0x21a /sources/glibc/src/glibc-2.37/build/libc_pic.a(strchr-sse2.os)
                0x0000000000020d50                __strchr_sse2
 .text          0x0000000000020f6a        0x0 /sources/glibc/src/glibc-2.37/build/libc_pic.a(strchr-sse2-no-bsf.os)
 .text          0x0000000000020f6a        0x0 /sources/glibc/src/glibc-2.37/build/libc_pic.a(strcmp-avx2.os)
 .text          0x0000000000020f6a        0x0 /sources/glibc/src/glibc-2.37/build/libc_pic.a(strcmp-avx2-rtm.os)
 .text          0x0000000000020f6a        0x0 /sources/glibc/src/glibc-2.37/build/libc_pic.a(strcmp-evex.os)
 *fill*         0x0000000000020f6a        0x6 
 .text          0x0000000000020f70     0x1439 /sources/glibc/src/glibc-2.37/build/libc_pic.a(strcmp-sse2.os)
                0x0000000000020f70                __strcmp_sse2
 *fill*         0x00000000000223a9        0x7 
 .text          0x00000000000223b0      0x2a3 /sources/glibc/src/glibc-2.37/build/libc_pic.a(strcmp-sse2-unaligned.os)
                0x00000000000223b0                __strcmp_sse2_unaligned
 .text          0x0000000000022653        0x0 /sources/glibc/src/glibc-2.37/build/libc_pic.a(strcmp-sse4_2.os)
 .text          0x0000000000022653        0x0 /sources/glibc/src/glibc-2.37/build/libc_pic.a(strcspn-sse4.os)
 .text          0x0000000000022653        0x0 /sources/glibc/src/glibc-2.37/build/libc_pic.a(strlen-avx2.os)
 .text          0x0000000000022653        0x0 /sources/glibc/src/glibc-2.37/build/libc_pic.a(strlen-avx2-rtm.os)
 .text          0x0000000000022653        0x0 /sources/glibc/src/glibc-2.37/build/libc_pic.a(strlen-evex.os)
 *fill*         0x0000000000022653        0xd 
 .text          0x0000000000022660      0x19c /sources/glibc/src/glibc-2.37/build/libc_pic.a(strlen-sse2.os)
                0x0000000000022660                __strlen_sse2
 .text          0x00000000000227fc        0x0 /sources/glibc/src/glibc-2.37/build/libc_pic.a(strncmp-avx2.os)
 .text          0x00000000000227fc        0x0 /sources/glibc/src/glibc-2.37/build/libc_pic.a(strncmp-avx2-rtm.os)
 .text          0x00000000000227fc        0x0 /sources/glibc/src/glibc-2.37/build/libc_pic.a(strncmp-evex.os)
 *fill*         0x00000000000227fc        0x4 
 .text          0x0000000000022800     0x1849 /sources/glibc/src/glibc-2.37/build/libc_pic.a(strncmp-sse2.os)
                0x0000000000022800                __strncmp_sse2
 .text          0x0000000000024049        0x0 /sources/glibc/src/glibc-2.37/build/libc_pic.a(strncmp-sse4_2.os)
 .text          0x0000000000024049        0x0 /sources/glibc/src/glibc-2.37/build/libc_pic.a(strnlen-avx2.os)
 .text          0x0000000000024049        0x0 /sources/glibc/src/glibc-2.37/build/libc_pic.a(strnlen-avx2-rtm.os)
 .text          0x0000000000024049        0x0 /sources/glibc/src/glibc-2.37/build/libc_pic.a(strnlen-evex.os)
 *fill*         0x0000000000024049        0x7 
 .text          0x0000000000024050      0x218 /sources/glibc/src/glibc-2.37/build/libc_pic.a(strnlen-sse2.os)
                0x0000000000024050                __strnlen_sse2
 .text          0x0000000000024268        0x0 /sources/glibc/src/glibc-2.37/build/libc_pic.a(varshift.os)
 *fill*         0x0000000000024268        0x8 
 .text          0x0000000000024270      0x18d /sources/glibc/src/glibc-2.37/build/libc_pic.a(strcspn-generic.os)
                0x0000000000024270                __strcspn_generic
 *fill*         0x00000000000243fd        0x3 
 .text          0x0000000000024400      0x188 /sources/glibc/src/glibc-2.37/build/libc_pic.a(cacheinfo.os)
                0x0000000000024400                __x86_cacheinfo
                0x00000000000244a0                __cache_sysconf
 *fill*         0x0000000000024588        0x8 
 .text          0x0000000000024590       0x29 /sources/glibc/src/glibc-2.37/build/libc_pic.a(closedir.os)
                0x0000000000024590                __closedir
                0x0000000000024590                closedir
 *fill*         0x00000000000245b9        0x7 
 .text          0x00000000000245c0       0x6e /sources/glibc/src/glibc-2.37/build/libc_pic.a(rewinddir.os)
                0x00000000000245c0                rewinddir
                0x00000000000245c0                __rewinddir
                0x00000000000245c0                __GI___rewinddir
 *fill*         0x000000000002462e        0x2 
 .text          0x0000000000024630       0xde /sources/glibc/src/glibc-2.37/build/libc_pic.a(readdir64.os)
                0x0000000000024630                readdir
                0x0000000000024630                __readdir64
                0x0000000000024630                __readdir
                0x0000000000024630                __GI___readdir64
                0x0000000000024630                readdir64
 *fill*         0x000000000002470e        0x2 
 .text          0x0000000000024710       0xb7 /sources/glibc/src/glibc-2.37/build/libc_pic.a(fdopendir.os)
                0x0000000000024710                fdopendir
                0x0000000000024710                __fdopendir
 *fill*         0x00000000000247c7        0x9 
 .text          0x00000000000247d0       0x21 /sources/glibc/src/glibc-2.37/build/libc_pic.a(uname.os)
                0x00000000000247d0                uname
                0x00000000000247d0                __GI_uname
                0x00000000000247d0                __uname
                0x00000000000247d0                __GI___uname
 *fill*         0x00000000000247f1        0xf 
 .text          0x0000000000024800       0x24 /sources/glibc/src/glibc-2.37/build/libc_pic.a(_exit.os)
                0x0000000000024800                _Exit
                0x0000000000024800                __GI__exit
                0x0000000000024800                _exit
 *fill*         0x0000000000024824        0xc 
 .text          0x0000000000024830        0x8 /sources/glibc/src/glibc-2.37/build/libc_pic.a(getpid.os)
                0x0000000000024830                __getpid
                0x0000000000024830                getpid
                0x0000000000024830                __GI_getpid
                0x0000000000024830                __GI___getpid
 .text          0x0000000000024838        0x0 /sources/glibc/src/glibc-2.37/build/libc_pic.a(environ.os)
 *fill*         0x0000000000024838        0x8 
 .text          0x0000000000024840       0x12 /sources/glibc/src/glibc-2.37/build/libc_pic.a(stat64.os)
                0x0000000000024840                stat64
                0x0000000000024840                __stat
                0x0000000000024840                __stat64
                0x0000000000024840                stat
                0x0000000000024840                __GI___stat64
 *fill*         0x0000000000024852        0xe 
 .text          0x0000000000024860       0x34 /sources/glibc/src/glibc-2.37/build/libc_pic.a(fstat64.os)
                0x0000000000024860                __GI___fstat64
                0x0000000000024860                fstat64
                0x0000000000024860                fstat
                0x0000000000024860                __fstat64
                0x0000000000024860                __fstat
 *fill*         0x0000000000024894        0xc 
 .text          0x00000000000248a0       0x15 /sources/glibc/src/glibc-2.37/build/libc_pic.a(lstat64.os)
                0x00000000000248a0                __lstat64
                0x00000000000248a0                lstat
                0x00000000000248a0                lstat64
                0x00000000000248a0                __GI___lstat64
                0x00000000000248a0                __lstat
 *fill*         0x00000000000248b5        0xb 
 .text          0x00000000000248c0       0x2a /sources/glibc/src/glibc-2.37/build/libc_pic.a(fstatat64.os)
                0x00000000000248c0                fstatat
                0x00000000000248c0                __fstatat
                0x00000000000248c0                fstatat64
                0x00000000000248c0                __fstatat64
                0x00000000000248c0                __GI___fstatat
                0x00000000000248c0                __GI___fstatat64
 *fill*         0x00000000000248ea        0x6 
 .text          0x00000000000248f0      0x118 /sources/glibc/src/glibc-2.37/build/libc_pic.a(openat64.os)
                0x00000000000248f0                __openat64
                0x00000000000248f0                __GI___openat
                0x00000000000248f0                __GI___openat64
                0x00000000000248f0                __libc_openat64
                0x00000000000248f0                __openat
                0x00000000000248f0                openat
 *fill*         0x0000000000024a08        0x8 
 .text          0x0000000000024a10       0x24 /sources/glibc/src/glibc-2.37/build/libc_pic.a(lseek64.os)
                0x0000000000024a10                __GI___lseek
                0x0000000000024a10                __lseek64
                0x0000000000024a10                lseek
                0x0000000000024a10                __libc_lseek64
                0x0000000000024a10                llseek@GLIBC_2.2.5
                0x0000000000024a10                __lseek
                0x0000000000024a10                __libc_lseek
                0x0000000000024a10                lseek64
 *fill*         0x0000000000024a34        0xc 
 .text          0x0000000000024a40       0x22 /sources/glibc/src/glibc-2.37/build/libc_pic.a(access.os)
                0x0000000000024a40                __GI___access
                0x0000000000024a40                access
                0x0000000000024a40                __access
 *fill*         0x0000000000024a62        0xe 
 .text          0x0000000000024a70       0x22 /sources/glibc/src/glibc-2.37/build/libc_pic.a(close_nocancel.os)
                0x0000000000024a70                __GI___close_nocancel
                0x0000000000024a70                __close_nocancel
 *fill*         0x0000000000024a92        0xe 
 .text          0x0000000000024aa0      0x130 /sources/glibc/src/glibc-2.37/build/libc_pic.a(fcntl_nocancel.os)
                0x0000000000024aa0                __fcntl64_nocancel
                0x0000000000024aa0                __GI___fcntl64_nocancel
                0x0000000000024b50                __fcntl64_nocancel_adjusted
 .text          0x0000000000024bd0       0xa0 /sources/glibc/src/glibc-2.37/build/libc_pic.a(open64_nocancel.os)
                0x0000000000024bd0                __GI___open_nocancel
                0x0000000000024bd0                __open_nocancel
                0x0000000000024bd0                __GI___open64_nocancel
                0x0000000000024bd0                __open64_nocancel
 .text          0x0000000000024c70       0x24 /sources/glibc/src/glibc-2.37/build/libc_pic.a(read_nocancel.os)
                0x0000000000024c70                __read_nocancel
                0x0000000000024c70                __GI___read_nocancel
 *fill*         0x0000000000024c94        0xc 
 .text          0x0000000000024ca0       0x2c /sources/glibc/src/glibc-2.37/build/libc_pic.a(pread64_nocancel.os)
                0x0000000000024ca0                __GI___pread64_nocancel
                0x0000000000024ca0                __pread64_nocancel
 *fill*         0x0000000000024ccc        0x4 
 .text          0x0000000000024cd0       0x24 /sources/glibc/src/glibc-2.37/build/libc_pic.a(write_nocancel.os)
                0x0000000000024cd0                __GI___write_nocancel
                0x0000000000024cd0                __write_nocancel
 *fill*         0x0000000000024cf4        0xc 
 .text          0x0000000000024d00       0x54 /sources/glibc/src/glibc-2.37/build/libc_pic.a(mmap64.os)
                0x0000000000024d00                __GI___mmap
                0x0000000000024d00                __mmap
                0x0000000000024d00                mmap
                0x0000000000024d00                __GI___mmap64
                0x0000000000024d00                __mmap64
                0x0000000000024d00                mmap64
 *fill*         0x0000000000024d54        0xc 
 .text          0x0000000000024d60       0x21 /sources/glibc/src/glibc-2.37/build/libc_pic.a(munmap.os)
                0x0000000000024d60                munmap
                0x0000000000024d60                __GI___munmap
                0x0000000000024d60                __GI_munmap
                0x0000000000024d60                __munmap
 *fill*         0x0000000000024d81        0xf 
 .text          0x0000000000024d90       0x21 /sources/glibc/src/glibc-2.37/build/libc_pic.a(mprotect.os)
                0x0000000000024d90                __mprotect
                0x0000000000024d90                __GI___mprotect
                0x0000000000024d90                __GI_mprotect
                0x0000000000024d90                mprotect
 .text          0x0000000000024db1        0x0 /sources/glibc/src/glibc-2.37/build/libc_pic.a(single_threaded.os)
 *fill*         0x0000000000024db1        0xf 
 .text          0x0000000000024dc0      0x21f /sources/glibc/src/glibc-2.37/build/libc_pic.a(profil.os)
                0x0000000000024e10                __profil
                0x0000000000024e10                profil
 *fill*         0x0000000000024fdf        0x1 
 .text          0x0000000000024fe0        0xb /sources/glibc/src/glibc-2.37/build/libc_pic.a(prof-freq.os)
                0x0000000000024fe0                __GI___profile_frequency
                0x0000000000024fe0                __profile_frequency
 *fill*         0x0000000000024feb        0x5 
 .text          0x0000000000024ff0       0x7b /sources/glibc/src/glibc-2.37/build/libc_pic.a(dl-addr-obj.os)
                0x0000000000024ff0                _dl_addr_inside_object
 *fill*         0x000000000002506b        0x5 
 .text          0x0000000000025070       0x2c /sources/glibc/src/glibc-2.37/build/libc_pic.a(sigaction.os)
                0x0000000000025070                sigaction
                0x0000000000025070                __GI___sigaction
                0x0000000000025070                __sigaction
 *fill*         0x000000000002509c        0x4 
 .text          0x00000000000250a0      0x1f0 /sources/glibc/src/glibc-2.37/build/libc_pic.a(libc_sigaction.os)
                0x00000000000250c0                __libc_sigaction
                0x00000000000250c0                __GI___libc_sigaction
 .text          0x0000000000025290       0x33 /sources/glibc/src/glibc-2.37/build/libc_pic.a(errname.os)
                0x0000000000025290                __get_errname
 *fill*         0x00000000000252c3        0xd 
 .text          0x00000000000252d0       0x81 /sources/glibc/src/glibc-2.37/build/libc_pic.a(strchrnul.os)
                0x00000000000252d0                __strchrnul
                0x00000000000252d0                strchrnul
 .text          0x0000000000025351        0x0 /sources/glibc/src/glibc-2.37/build/libc_pic.a(strchrnul-avx2.os)
 .text          0x0000000000025351        0x0 /sources/glibc/src/glibc-2.37/build/libc_pic.a(strchrnul-avx2-rtm.os)
 .text          0x0000000000025351        0x0 /sources/glibc/src/glibc-2.37/build/libc_pic.a(strchrnul-evex.os)
 *fill*         0x0000000000025351        0xf 
 .text          0x0000000000025360      0x20a /sources/glibc/src/glibc-2.37/build/libc_pic.a(strchrnul-sse2.os)
                0x0000000000025360                __strchrnul_sse2
 *fill*         0x000000000002556a        0x6 
 .text          0x0000000000025570       0x22 /sources/glibc/src/glibc-2.37/build/libc_pic.a(setitimer.os)
                0x0000000000025570                setitimer
                0x0000000000025570                __setitimer
 *fill*         0x0000000000025592        0xe 
 .text          0x00000000000255a0       0x34 /sources/glibc/src/glibc-2.37/build/libc_pic.a(getdents64.os)
                0x00000000000255a0                __getdents
                0x00000000000255a0                __GI___getdents64
                0x00000000000255a0                getdents64
                0x00000000000255a0                __getdents64
 *(.gnu.warning)

.text.evex512   0x0000000000000000      0xe68
 .text.evex512  0x0000000000000000      0x3f9 /sources/glibc/src/glibc-2.37/build/elf/dl-allobjs.os
                0x0000000000000000                _dl_runtime_profile_avx512
 *fill*         0x00000000000003f9        0x7 
 .text.evex512  0x0000000000000400      0x860 /sources/glibc/src/glibc-2.37/build/libc_pic.a(memmove-avx512-unaligned-erms.os)
                0x0000000000000400                __mempcpy_chk_avx512_unaligned
                0x0000000000000410                __mempcpy_avx512_unaligned
                0x0000000000000420                __memcpy_chk_avx512_unaligned
                0x0000000000000420                __memmove_chk_avx512_unaligned
                0x0000000000000430                __memmove_avx512_unaligned
                0x0000000000000430                __memcpy_avx512_unaligned
                0x0000000000000470                __mempcpy_chk_avx512_unaligned_erms
                0x0000000000000480                __mempcpy_avx512_unaligned_erms
                0x0000000000000490                __memcpy_chk_avx512_unaligned_erms
                0x0000000000000490                __memmove_chk_avx512_unaligned_erms
                0x00000000000004c0                __memmove_avx512_unaligned_erms
                0x00000000000004c0                __memcpy_avx512_unaligned_erms
 *fill*         0x0000000000000c60       0x20 
 .text.evex512  0x0000000000000c80      0x1e8 /sources/glibc/src/glibc-2.37/build/libc_pic.a(memset-avx512-unaligned-erms.os)
                0x0000000000000c80                __wmemset_chk_avx512_unaligned
                0x0000000000000c90                __wmemset_avx512_unaligned
                0x0000000000000cb0                __memset_chk_avx512_unaligned
                0x0000000000000cc0                __memset_avx512_unaligned
                0x0000000000000cf0                __memset_chk_avx512_unaligned_erms
                0x0000000000000d00                __memset_avx512_unaligned_erms

.text.avx       0x0000000000000000     0x2c84
 .text.avx      0x0000000000000000      0x3eb /sources/glibc/src/glibc-2.37/build/elf/dl-allobjs.os
                0x0000000000000000                _dl_runtime_profile_avx
 *fill*         0x00000000000003eb       0x15 
 .text.avx      0x0000000000000400      0x297 /sources/glibc/src/glibc-2.37/build/libc_pic.a(memchr-avx2.os)
                0x0000000000000400                __memchr_avx2
 *fill*         0x0000000000000697        0x9 
 .text.avx      0x00000000000006a0      0x3ff /sources/glibc/src/glibc-2.37/build/libc_pic.a(memcmp-avx2-movbe.os)
                0x00000000000006a0                __memcmp_avx2_movbe
 *fill*         0x0000000000000a9f       0x21 
 .text.avx      0x0000000000000ac0      0x79e /sources/glibc/src/glibc-2.37/build/libc_pic.a(memmove-avx-unaligned-erms.os)
                0x0000000000000ac0                __mempcpy_chk_avx_unaligned
                0x0000000000000ad0                __mempcpy_avx_unaligned
                0x0000000000000ae0                __memcpy_chk_avx_unaligned
                0x0000000000000ae0                __memmove_chk_avx_unaligned
                0x0000000000000af0                __memcpy_avx_unaligned
                0x0000000000000af0                __memmove_avx_unaligned
                0x0000000000000b20                __mempcpy_chk_avx_unaligned_erms
                0x0000000000000b30                __mempcpy_avx_unaligned_erms
                0x0000000000000b40                __memmove_chk_avx_unaligned_erms
                0x0000000000000b40                __memcpy_chk_avx_unaligned_erms
                0x0000000000000b80                __memcpy_avx_unaligned_erms
                0x0000000000000b80                __memmove_avx_unaligned_erms
 *fill*         0x000000000000125e       0x22 
 .text.avx      0x0000000000001280      0x1fd /sources/glibc/src/glibc-2.37/build/libc_pic.a(memset-avx2-unaligned-erms.os)
                0x0000000000001280                __wmemset_chk_avx2_unaligned
                0x0000000000001290                __wmemset_avx2_unaligned
                0x00000000000012c0                __memset_chk_avx2_unaligned
                0x00000000000012d0                __memset_avx2_unaligned
                0x0000000000001300                __memset_chk_avx2_unaligned_erms
                0x0000000000001340                __memset_avx2_unaligned_erms
 *fill*         0x000000000000147d        0x3 
 .text.avx      0x0000000000001480      0x157 /sources/glibc/src/glibc-2.37/build/libc_pic.a(rawmemchr-avx2.os)
                0x0000000000001480                __rawmemchr_avx2
 *fill*         0x00000000000015d7        0x9 
 .text.avx      0x00000000000015e0      0x241 /sources/glibc/src/glibc-2.37/build/libc_pic.a(stpcpy-avx2.os)
                0x00000000000015e0                __stpcpy_avx2
 *fill*         0x0000000000001821       0x1f 
 .text.avx      0x0000000000001840      0x22c /sources/glibc/src/glibc-2.37/build/libc_pic.a(strchr-avx2.os)
                0x0000000000001840                __strchr_avx2
 *fill*         0x0000000000001a6c        0x4 
 .text.avx      0x0000000000001a70      0x555 /sources/glibc/src/glibc-2.37/build/libc_pic.a(strcmp-avx2.os)
                0x0000000000001a70                __strcmp_avx2
 *fill*         0x0000000000001fc5       0x1b 
 .text.avx      0x0000000000001fe0      0x172 /sources/glibc/src/glibc-2.37/build/libc_pic.a(strlen-avx2.os)
                0x0000000000001fe0                __strlen_avx2
 *fill*         0x0000000000002152        0xe 
 .text.avx      0x0000000000002160      0x64e /sources/glibc/src/glibc-2.37/build/libc_pic.a(strncmp-avx2.os)
                0x0000000000002160                __strncmp_avx2
 *fill*         0x00000000000027ae       0x12 
 .text.avx      0x00000000000027c0      0x2ce /sources/glibc/src/glibc-2.37/build/libc_pic.a(strnlen-avx2.os)
                0x00000000000027c0                __strnlen_avx2
 *fill*         0x0000000000002a8e       0x12 
 .text.avx      0x0000000000002aa0      0x1e4 /sources/glibc/src/glibc-2.37/build/libc_pic.a(strchrnul-avx2.os)
                0x0000000000002aa0                __strchrnul_avx2

.text.compat    0x0000000000000000        0x1
 .text.compat   0x0000000000000000        0x1 /sources/glibc/src/glibc-2.37/build/elf/dl-allobjs.os
                0x0000000000000000                __rtld_version_placeholder_1
                0x0000000000000000                __rtld_version_placeholder@GLIBC_2.34

.text.avx.rtm   0x0000000000000000     0x2885
 .text.avx.rtm  0x0000000000000000      0x2b8 /sources/glibc/src/glibc-2.37/build/libc_pic.a(memchr-avx2-rtm.os)
                0x0000000000000000                __memchr_avx2_rtm
 *fill*         0x00000000000002b8        0x8 
 .text.avx.rtm  0x00000000000002c0      0x3ff /sources/glibc/src/glibc-2.37/build/libc_pic.a(memcmp-avx2-movbe-rtm.os)
                0x00000000000002c0                __memcmp_avx2_movbe_rtm
 *fill*         0x00000000000006bf        0x1 
 .text.avx.rtm  0x00000000000006c0      0x79f /sources/glibc/src/glibc-2.37/build/libc_pic.a(memmove-avx-unaligned-erms-rtm.os)
                0x00000000000006c0                __mempcpy_chk_avx_unaligned_rtm
                0x00000000000006d0                __mempcpy_avx_unaligned_rtm
                0x00000000000006e0                __memmove_chk_avx_unaligned_rtm
                0x00000000000006e0                __memcpy_chk_avx_unaligned_rtm
                0x00000000000006f0                __memcpy_avx_unaligned_rtm
                0x00000000000006f0                __memmove_avx_unaligned_rtm
                0x0000000000000720                __mempcpy_chk_avx_unaligned_erms_rtm
                0x0000000000000730                __mempcpy_avx_unaligned_erms_rtm
                0x0000000000000740                __memcpy_chk_avx_unaligned_erms_rtm
                0x0000000000000740                __memmove_chk_avx_unaligned_erms_rtm
                0x0000000000000780                __memmove_avx_unaligned_erms_rtm
                0x0000000000000780                __memcpy_avx_unaligned_erms_rtm
 *fill*         0x0000000000000e5f       0x21 
 .text.avx.rtm  0x0000000000000e80      0x1fd /sources/glibc/src/glibc-2.37/build/libc_pic.a(memset-avx2-unaligned-erms-rtm.os)
                0x0000000000000e80                __wmemset_chk_avx2_unaligned_rtm
                0x0000000000000e90                __wmemset_avx2_unaligned_rtm
                0x0000000000000ec0                __memset_chk_avx2_unaligned_rtm
                0x0000000000000ed0                __memset_avx2_unaligned_rtm
                0x0000000000000f00                __memset_chk_avx2_unaligned_erms_rtm
                0x0000000000000f40                __memset_avx2_unaligned_erms_rtm
 *fill*         0x000000000000107d        0x3 
 .text.avx.rtm  0x0000000000001080      0x168 /sources/glibc/src/glibc-2.37/build/libc_pic.a(rawmemchr-avx2-rtm.os)
                0x0000000000001080                __rawmemchr_avx2_rtm
 *fill*         0x00000000000011e8        0x8 
 .text.avx.rtm  0x00000000000011f0      0x24d /sources/glibc/src/glibc-2.37/build/libc_pic.a(stpcpy-avx2-rtm.os)
                0x00000000000011f0                __stpcpy_avx2_rtm
 *fill*         0x000000000000143d        0x3 
 .text.avx.rtm  0x0000000000001440      0x22f /sources/glibc/src/glibc-2.37/build/libc_pic.a(strchr-avx2-rtm.os)
                0x0000000000001440                __strchr_avx2_rtm
 *fill*         0x000000000000166f        0x1 
 .text.avx.rtm  0x0000000000001670      0x555 /sources/glibc/src/glibc-2.37/build/libc_pic.a(strcmp-avx2-rtm.os)
                0x0000000000001670                __strcmp_avx2_rtm
 *fill*         0x0000000000001bc5       0x1b 
 .text.avx.rtm  0x0000000000001be0      0x16b /sources/glibc/src/glibc-2.37/build/libc_pic.a(strlen-avx2-rtm.os)
                0x0000000000001be0                __strlen_avx2_rtm
 *fill*         0x0000000000001d4b        0x5 
 .text.avx.rtm  0x0000000000001d50      0x66e /sources/glibc/src/glibc-2.37/build/libc_pic.a(strncmp-avx2-rtm.os)
                0x0000000000001d50                __strncmp_avx2_rtm
 *fill*         0x00000000000023be        0x2 
 .text.avx.rtm  0x00000000000023c0      0x2cc /sources/glibc/src/glibc-2.37/build/libc_pic.a(strnlen-avx2-rtm.os)
                0x00000000000023c0                __strnlen_avx2_rtm
 *fill*         0x000000000000268c       0x14 
 .text.avx.rtm  0x00000000000026a0      0x1e5 /sources/glibc/src/glibc-2.37/build/libc_pic.a(strchrnul-avx2-rtm.os)
                0x00000000000026a0                __strchrnul_avx2_rtm

.text.evex      0x0000000000000000     0x2757
 .text.evex     0x0000000000000000      0x24f /sources/glibc/src/glibc-2.37/build/libc_pic.a(memchr-evex.os)
                0x0000000000000000                __memchr_evex
 *fill*         0x000000000000024f       0x31 
 .text.evex     0x0000000000000280      0x2fe /sources/glibc/src/glibc-2.37/build/libc_pic.a(memcmp-evex-movbe.os)
                0x0000000000000280                __memcmp_evex_movbe
 *fill*         0x000000000000057e        0x2 
 .text.evex     0x0000000000000580      0x87b /sources/glibc/src/glibc-2.37/build/libc_pic.a(memmove-evex-unaligned-erms.os)
                0x0000000000000580                __mempcpy_chk_evex_unaligned
                0x0000000000000590                __mempcpy_evex_unaligned
                0x00000000000005a0                __memcpy_chk_evex_unaligned
                0x00000000000005a0                __memmove_chk_evex_unaligned
                0x00000000000005b0                __memmove_evex_unaligned
                0x00000000000005b0                __memcpy_evex_unaligned
                0x00000000000005f0                __mempcpy_chk_evex_unaligned_erms
                0x0000000000000600                __mempcpy_evex_unaligned_erms
                0x0000000000000610                __memcpy_chk_evex_unaligned_erms
                0x0000000000000610                __memmove_chk_evex_unaligned_erms
                0x0000000000000640                __memmove_evex_unaligned_erms
                0x0000000000000640                __memcpy_evex_unaligned_erms
 *fill*         0x0000000000000dfb        0x5 
 .text.evex     0x0000000000000e00      0x1b8 /sources/glibc/src/glibc-2.37/build/libc_pic.a(memset-evex-unaligned-erms.os)
                0x0000000000000e00                __wmemset_chk_evex_unaligned
                0x0000000000000e10                __wmemset_evex_unaligned
                0x0000000000000e30                __memset_chk_evex_unaligned
                0x0000000000000e40                __memset_evex_unaligned
                0x0000000000000e70                __memset_chk_evex_unaligned_erms
                0x0000000000000e80                __memset_evex_unaligned_erms
 *fill*         0x0000000000000fb8        0x8 
 .text.evex     0x0000000000000fc0      0x13a /sources/glibc/src/glibc-2.37/build/libc_pic.a(rawmemchr-evex.os)
                0x0000000000000fc0                __rawmemchr_evex
 *fill*         0x00000000000010fa        0x6 
 .text.evex     0x0000000000001100      0x2d0 /sources/glibc/src/glibc-2.37/build/libc_pic.a(stpcpy-evex.os)
                0x0000000000001100                __stpcpy_evex
 *fill*         0x00000000000013d0       0x30 
 .text.evex     0x0000000000001400      0x1ff /sources/glibc/src/glibc-2.37/build/libc_pic.a(strchr-evex.os)
                0x0000000000001400                __strchr_evex
 *fill*         0x00000000000015ff        0x1 
 .text.evex     0x0000000000001600      0x553 /sources/glibc/src/glibc-2.37/build/libc_pic.a(strcmp-evex.os)
                0x0000000000001600                __strcmp_evex
 *fill*         0x0000000000001b53       0x2d 
 .text.evex     0x0000000000001b80      0x15d /sources/glibc/src/glibc-2.37/build/libc_pic.a(strlen-evex.os)
                0x0000000000001b80                __strlen_evex
 *fill*         0x0000000000001cdd        0x3 
 .text.evex     0x0000000000001ce0      0x64c /sources/glibc/src/glibc-2.37/build/libc_pic.a(strncmp-evex.os)
                0x0000000000001ce0                __strncmp_evex
 *fill*         0x000000000000232c       0x14 
 .text.evex     0x0000000000002340      0x217 /sources/glibc/src/glibc-2.37/build/libc_pic.a(strnlen-evex.os)
                0x0000000000002340                __strnlen_evex
 *fill*         0x0000000000002557       0x29 
 .text.evex     0x0000000000002580      0x1d7 /sources/glibc/src/glibc-2.37/build/libc_pic.a(strchrnul-evex.os)
                0x0000000000002580                __strchrnul_evex

.text.evex.rtm  0x0000000000000000      0x3b7
 .text.evex.rtm
                0x0000000000000000      0x24f /sources/glibc/src/glibc-2.37/build/libc_pic.a(memchr-evex-rtm.os)
                0x0000000000000000                __memchr_evex_rtm
 *fill*         0x000000000000024f       0x31 
 .text.evex.rtm
                0x0000000000000280      0x137 /sources/glibc/src/glibc-2.37/build/libc_pic.a(rawmemchr-evex-rtm.os)
                0x0000000000000280                __rawmemchr_evex_rtm

.text.avx512    0x0000000000000000      0x9f0
 .text.avx512   0x0000000000000000      0x76b /sources/glibc/src/glibc-2.37/build/libc_pic.a(memmove-avx512-no-vzeroupper.os)
                0x0000000000000000                __mempcpy_chk_avx512_no_vzeroupper
                0x0000000000000010                __mempcpy_avx512_no_vzeroupper
                0x0000000000000020                __memcpy_chk_avx512_no_vzeroupper
                0x0000000000000020                __memmove_chk_avx512_no_vzeroupper
                0x0000000000000030                __memcpy_avx512_no_vzeroupper
                0x0000000000000030                __memmove_avx512_no_vzeroupper
 *fill*         0x000000000000076b        0x5 
 .text.avx512   0x0000000000000770      0x280 /sources/glibc/src/glibc-2.37/build/libc_pic.a(memset-avx512-no-vzeroupper.os)
                0x0000000000000770                __memset_chk_avx512_no_vzeroupper
                0x0000000000000780                __memset_avx512_no_vzeroupper

.text.ssse3     0x0000000000000000      0xf7d
 .text.ssse3    0x0000000000000000      0xf7d /sources/glibc/src/glibc-2.37/build/libc_pic.a(memmove-ssse3.os)
                0x0000000000000000                __mempcpy_chk_ssse3
                0x0000000000000010                __mempcpy_ssse3
                0x0000000000000020                __memcpy_chk_ssse3
                0x0000000000000020                __memmove_chk_ssse3
                0x0000000000000040                __memcpy_ssse3
                0x0000000000000040                __memmove_ssse3

.text.atom      0x0000000000000000      0x315
 .text.atom     0x0000000000000000      0x315 /sources/glibc/src/glibc-2.37/build/libc_pic.a(strchr-sse2-no-bsf.os)
                0x0000000000000000                __strchr_sse2_no_bsf

.text.sse4.2    0x0000000000000000     0x1ea9
 .text.sse4.2   0x0000000000000000      0xda9 /sources/glibc/src/glibc-2.37/build/libc_pic.a(strcmp-sse4_2.os)
                0x0000000000000000                __strcmp_sse42
 *fill*         0x0000000000000da9        0x7 
 .text.sse4.2   0x0000000000000db0      0x11b /sources/glibc/src/glibc-2.37/build/libc_pic.a(strcspn-sse4.os)
                0x0000000000000db0                __strcspn_sse42
 *fill*         0x0000000000000ecb        0x5 
 .text.sse4.2   0x0000000000000ed0      0xfd9 /sources/glibc/src/glibc-2.37/build/libc_pic.a(strncmp-sse4_2.os)
                0x0000000000000ed0                __strncmp_sse42

.fini
 *(SORT_NONE(.fini))

.rodata         0x0000000000000000     0x17b5
 *(.rodata)
 .rodata        0x0000000000000000     0x10d2 /sources/glibc/src/glibc-2.37/build/elf/dl-allobjs.os
 .rodata        0x00000000000010d2       0x80 /sources/glibc/src/glibc-2.37/build/libc_pic.a(stpcpy-sse2-unaligned.os)
 *fill*         0x0000000000001152        0x6 
 .rodata        0x0000000000001158       0x40 /sources/glibc/src/glibc-2.37/build/libc_pic.a(strcmp-sse2.os)
 .rodata        0x0000000000001198       0x40 /sources/glibc/src/glibc-2.37/build/libc_pic.a(strncmp-sse2.os)
 *fill*         0x00000000000011d8        0x8 
 .rodata        0x00000000000011e0       0x1f /sources/glibc/src/glibc-2.37/build/libc_pic.a(varshift.os)
                0x00000000000011e0                ___m128i_shift_right
 *fill*         0x00000000000011ff        0x1 
 .rodata        0x0000000000001200       0x34 /sources/glibc/src/glibc-2.37/build/libc_pic.a(cacheinfo.os)
 *fill*         0x0000000000001234        0xc 
 .rodata        0x0000000000001240      0x575 /sources/glibc/src/glibc-2.37/build/libc_pic.a(errname.os)

.rodata.str1.1  0x0000000000000000     0x17bf
 .rodata.str1.1
                0x0000000000000000     0x17aa /sources/glibc/src/glibc-2.37/build/elf/dl-allobjs.os
 .rodata.str1.1
                0x00000000000017aa       0x14 /sources/glibc/src/glibc-2.37/build/libc_pic.a(check_fds.os)
 .rodata.str1.1
                0x00000000000017be        0x1 /sources/glibc/src/glibc-2.37/build/libc_pic.a(fstat64.os)

.rodata.str1.16
                0x0000000000000000      0x525
 .rodata.str1.16
                0x0000000000000000      0x525 /sources/glibc/src/glibc-2.37/build/elf/dl-allobjs.os
                0x0000000000000390                _dl_hwcaps_subdirs
                0x00000000000003f0                __GI__itoa_lower_digits
                0x00000000000003f0                _itoa_lower_digits

.rodata.str1.8  0x0000000000000000     0x2dd7
 .rodata.str1.8
                0x0000000000000000     0x2d99 /sources/glibc/src/glibc-2.37/build/elf/dl-allobjs.os
 *fill*         0x0000000000002d99        0x7 
 .rodata.str1.8
                0x0000000000002da0       0x37 /sources/glibc/src/glibc-2.37/build/libc_pic.a(lowlevellock.os)

.rodata.str1.32
                0x0000000000000000       0x5b
 .rodata.str1.32
                0x0000000000000000       0x5b /sources/glibc/src/glibc-2.37/build/elf/dl-allobjs.os

.rodata.cst4    0x0000000000000000        0x8
 .rodata.cst4   0x0000000000000000        0x8 /sources/glibc/src/glibc-2.37/build/elf/dl-allobjs.os
                0x0000000000000004                __rseq_flags

.rodata.cst2    0x0000000000000000        0x4
 .rodata.cst2   0x0000000000000000        0x4 /sources/glibc/src/glibc-2.37/build/elf/dl-allobjs.os

.rodata.cst16   0x0000000000000000       0x30
 .rodata.cst16  0x0000000000000000       0x30 /sources/glibc/src/glibc-2.37/build/elf/dl-allobjs.os

.rodata.cst8    0x0000000000000000        0x8
 .rodata.cst8   0x0000000000000000        0x8 /sources/glibc/src/glibc-2.37/build/elf/dl-allobjs.os

.rodata.sse4.2  0x0000000000000000       0x80
 .rodata.sse4.2
                0x0000000000000000       0x40 /sources/glibc/src/glibc-2.37/build/libc_pic.a(strcmp-sse4_2.os)
 .rodata.sse4.2
                0x0000000000000040       0x40 /sources/glibc/src/glibc-2.37/build/libc_pic.a(strncmp-sse4_2.os)

.rodata1
 *(.rodata1)

.eh_frame_hdr
 *(.eh_frame_hdr)

.eh_frame       0x0000000000000000     0x4ff4
 *(.eh_frame)
 .eh_frame      0x0000000000000000     0x3218 /sources/glibc/src/glibc-2.37/build/elf/dl-allobjs.os
                                       0x329c (size before relaxing)
 *fill*         0x0000000000003218        0x0 
 .eh_frame      0x0000000000003218       0x68 /sources/glibc/src/glibc-2.37/build/libc_pic.a(check_fds.os)
 .eh_frame      0x0000000000003280       0x30 /sources/glibc/src/glibc-2.37/build/libc_pic.a(setjmp.os)
 .eh_frame      0x00000000000032b0       0x48 /sources/glibc/src/glibc-2.37/build/libc_pic.a(__longjmp.os)
 .eh_frame      0x00000000000032f8       0x70 /sources/glibc/src/glibc-2.37/build/libc_pic.a(lowlevellock.os)
 .eh_frame      0x0000000000003368       0x48 /sources/glibc/src/glibc-2.37/build/libc_pic.a(scratch_buffer_set_array_size.os)
 .eh_frame      0x00000000000033b0       0x30 /sources/glibc/src/glibc-2.37/build/libc_pic.a(memchr.os)
 .eh_frame      0x00000000000033e0       0x30 /sources/glibc/src/glibc-2.37/build/libc_pic.a(memcmp.os)
 .eh_frame      0x0000000000003410       0x30 /sources/glibc/src/glibc-2.37/build/libc_pic.a(memcpy.os)
 .eh_frame      0x0000000000003440       0x30 /sources/glibc/src/glibc-2.37/build/libc_pic.a(memmove.os)
 .eh_frame      0x0000000000003470       0x30 /sources/glibc/src/glibc-2.37/build/libc_pic.a(mempcpy.os)
 .eh_frame      0x00000000000034a0       0x30 /sources/glibc/src/glibc-2.37/build/libc_pic.a(memset.os)
 .eh_frame      0x00000000000034d0       0x30 /sources/glibc/src/glibc-2.37/build/libc_pic.a(rawmemchr.os)
 .eh_frame      0x0000000000003500       0x30 /sources/glibc/src/glibc-2.37/build/libc_pic.a(stpcpy.os)
 .eh_frame      0x0000000000003530       0x30 /sources/glibc/src/glibc-2.37/build/libc_pic.a(strchr.os)
 .eh_frame      0x0000000000003560       0x30 /sources/glibc/src/glibc-2.37/build/libc_pic.a(strcmp.os)
 .eh_frame      0x0000000000003590       0x30 /sources/glibc/src/glibc-2.37/build/libc_pic.a(strcspn.os)
 .eh_frame      0x00000000000035c0       0x50 /sources/glibc/src/glibc-2.37/build/libc_pic.a(strdup.os)
 .eh_frame      0x0000000000003610       0x30 /sources/glibc/src/glibc-2.37/build/libc_pic.a(strerrorname_np.os)
 .eh_frame      0x0000000000003640       0x30 /sources/glibc/src/glibc-2.37/build/libc_pic.a(strlen.os)
 .eh_frame      0x0000000000003670       0x30 /sources/glibc/src/glibc-2.37/build/libc_pic.a(strncmp.os)
 .eh_frame      0x00000000000036a0       0x30 /sources/glibc/src/glibc-2.37/build/libc_pic.a(strnlen.os)
 .eh_frame      0x00000000000036d0       0x30 /sources/glibc/src/glibc-2.37/build/libc_pic.a(memchr-avx2.os)
 .eh_frame      0x0000000000003700       0x30 /sources/glibc/src/glibc-2.37/build/libc_pic.a(memchr-avx2-rtm.os)
 .eh_frame      0x0000000000003730       0x30 /sources/glibc/src/glibc-2.37/build/libc_pic.a(memchr-evex.os)
 .eh_frame      0x0000000000003760       0x30 /sources/glibc/src/glibc-2.37/build/libc_pic.a(memchr-evex-rtm.os)
 .eh_frame      0x0000000000003790       0x30 /sources/glibc/src/glibc-2.37/build/libc_pic.a(memchr-sse2.os)
 .eh_frame      0x00000000000037c0       0x30 /sources/glibc/src/glibc-2.37/build/libc_pic.a(memcmp-avx2-movbe.os)
 .eh_frame      0x00000000000037f0       0x30 /sources/glibc/src/glibc-2.37/build/libc_pic.a(memcmp-avx2-movbe-rtm.os)
 .eh_frame      0x0000000000003820       0x30 /sources/glibc/src/glibc-2.37/build/libc_pic.a(memcmp-evex-movbe.os)
 .eh_frame      0x0000000000003850       0x30 /sources/glibc/src/glibc-2.37/build/libc_pic.a(memcmp-sse2.os)
 .eh_frame      0x0000000000003880       0xb8 /sources/glibc/src/glibc-2.37/build/libc_pic.a(memmove-avx-unaligned-erms.os)
 .eh_frame      0x0000000000003938       0xb8 /sources/glibc/src/glibc-2.37/build/libc_pic.a(memmove-avx-unaligned-erms-rtm.os)
 .eh_frame      0x00000000000039f0       0x68 /sources/glibc/src/glibc-2.37/build/libc_pic.a(memmove-avx512-no-vzeroupper.os)
 .eh_frame      0x0000000000003a58       0xb8 /sources/glibc/src/glibc-2.37/build/libc_pic.a(memmove-avx512-unaligned-erms.os)
 .eh_frame      0x0000000000003b10       0x68 /sources/glibc/src/glibc-2.37/build/libc_pic.a(memmove-erms.os)
 .eh_frame      0x0000000000003b78       0xb8 /sources/glibc/src/glibc-2.37/build/libc_pic.a(memmove-evex-unaligned-erms.os)
 .eh_frame      0x0000000000003c30       0xb8 /sources/glibc/src/glibc-2.37/build/libc_pic.a(memmove-sse2-unaligned-erms.os)
 .eh_frame      0x0000000000003ce8       0x68 /sources/glibc/src/glibc-2.37/build/libc_pic.a(memmove-ssse3.os)
 .eh_frame      0x0000000000003d50       0x90 /sources/glibc/src/glibc-2.37/build/libc_pic.a(memset-avx2-unaligned-erms.os)
 .eh_frame      0x0000000000003de0       0x90 /sources/glibc/src/glibc-2.37/build/libc_pic.a(memset-avx2-unaligned-erms-rtm.os)
 .eh_frame      0x0000000000003e70       0x40 /sources/glibc/src/glibc-2.37/build/libc_pic.a(memset-avx512-no-vzeroupper.os)
 .eh_frame      0x0000000000003eb0       0x90 /sources/glibc/src/glibc-2.37/build/libc_pic.a(memset-avx512-unaligned-erms.os)
 .eh_frame      0x0000000000003f40       0x40 /sources/glibc/src/glibc-2.37/build/libc_pic.a(memset-erms.os)
 .eh_frame      0x0000000000003f80       0x90 /sources/glibc/src/glibc-2.37/build/libc_pic.a(memset-evex-unaligned-erms.os)
 .eh_frame      0x0000000000004010       0x90 /sources/glibc/src/glibc-2.37/build/libc_pic.a(memset-sse2-unaligned-erms.os)
 .eh_frame      0x00000000000040a0       0x30 /sources/glibc/src/glibc-2.37/build/libc_pic.a(rawmemchr-avx2.os)
 .eh_frame      0x00000000000040d0       0x30 /sources/glibc/src/glibc-2.37/build/libc_pic.a(rawmemchr-avx2-rtm.os)
 .eh_frame      0x0000000000004100       0x30 /sources/glibc/src/glibc-2.37/build/libc_pic.a(rawmemchr-evex.os)
 .eh_frame      0x0000000000004130       0x30 /sources/glibc/src/glibc-2.37/build/libc_pic.a(rawmemchr-evex-rtm.os)
 .eh_frame      0x0000000000004160       0x30 /sources/glibc/src/glibc-2.37/build/libc_pic.a(rawmemchr-sse2.os)
 .eh_frame      0x0000000000004190       0x30 /sources/glibc/src/glibc-2.37/build/libc_pic.a(stpcpy-avx2.os)
 .eh_frame      0x00000000000041c0       0x30 /sources/glibc/src/glibc-2.37/build/libc_pic.a(stpcpy-avx2-rtm.os)
 .eh_frame      0x00000000000041f0       0x30 /sources/glibc/src/glibc-2.37/build/libc_pic.a(stpcpy-evex.os)
 .eh_frame      0x0000000000004220       0x30 /sources/glibc/src/glibc-2.37/build/libc_pic.a(stpcpy-sse2.os)
 .eh_frame      0x0000000000004250       0x30 /sources/glibc/src/glibc-2.37/build/libc_pic.a(stpcpy-sse2-unaligned.os)
 .eh_frame      0x0000000000004280       0x30 /sources/glibc/src/glibc-2.37/build/libc_pic.a(strchr-avx2.os)
 .eh_frame      0x00000000000042b0       0x30 /sources/glibc/src/glibc-2.37/build/libc_pic.a(strchr-avx2-rtm.os)
 .eh_frame      0x00000000000042e0       0x30 /sources/glibc/src/glibc-2.37/build/libc_pic.a(strchr-evex.os)
 .eh_frame      0x0000000000004310       0x30 /sources/glibc/src/glibc-2.37/build/libc_pic.a(strchr-sse2.os)
 .eh_frame      0x0000000000004340       0x30 /sources/glibc/src/glibc-2.37/build/libc_pic.a(strchr-sse2-no-bsf.os)
 .eh_frame      0x0000000000004370       0x30 /sources/glibc/src/glibc-2.37/build/libc_pic.a(strcmp-avx2.os)
 .eh_frame      0x00000000000043a0       0x30 /sources/glibc/src/glibc-2.37/build/libc_pic.a(strcmp-avx2-rtm.os)
 .eh_frame      0x00000000000043d0       0x30 /sources/glibc/src/glibc-2.37/build/libc_pic.a(strcmp-evex.os)
 .eh_frame      0x0000000000004400       0x30 /sources/glibc/src/glibc-2.37/build/libc_pic.a(strcmp-sse2.os)
 .eh_frame      0x0000000000004430       0x30 /sources/glibc/src/glibc-2.37/build/libc_pic.a(strcmp-sse2-unaligned.os)
 .eh_frame      0x0000000000004460       0x30 /sources/glibc/src/glibc-2.37/build/libc_pic.a(strcmp-sse4_2.os)
 .eh_frame      0x0000000000004490       0x30 /sources/glibc/src/glibc-2.37/build/libc_pic.a(strcspn-sse4.os)
 .eh_frame      0x00000000000044c0       0x30 /sources/glibc/src/glibc-2.37/build/libc_pic.a(strlen-avx2.os)
 .eh_frame      0x00000000000044f0       0x30 /sources/glibc/src/glibc-2.37/build/libc_pic.a(strlen-avx2-rtm.os)
 .eh_frame      0x0000000000004520       0x30 /sources/glibc/src/glibc-2.37/build/libc_pic.a(strlen-evex.os)
 .eh_frame      0x0000000000004550       0x30 /sources/glibc/src/glibc-2.37/build/libc_pic.a(strlen-sse2.os)
 .eh_frame      0x0000000000004580       0x30 /sources/glibc/src/glibc-2.37/build/libc_pic.a(strncmp-avx2.os)
 .eh_frame      0x00000000000045b0       0x30 /sources/glibc/src/glibc-2.37/build/libc_pic.a(strncmp-avx2-rtm.os)
 .eh_frame      0x00000000000045e0       0x30 /sources/glibc/src/glibc-2.37/build/libc_pic.a(strncmp-evex.os)
 .eh_frame      0x0000000000004610       0x30 /sources/glibc/src/glibc-2.37/build/libc_pic.a(strncmp-sse2.os)
 .eh_frame      0x0000000000004640       0x30 /sources/glibc/src/glibc-2.37/build/libc_pic.a(strncmp-sse4_2.os)
 .eh_frame      0x0000000000004670       0x30 /sources/glibc/src/glibc-2.37/build/libc_pic.a(strnlen-avx2.os)
 .eh_frame      0x00000000000046a0       0x30 /sources/glibc/src/glibc-2.37/build/libc_pic.a(strnlen-avx2-rtm.os)
 .eh_frame      0x00000000000046d0       0x30 /sources/glibc/src/glibc-2.37/build/libc_pic.a(strnlen-evex.os)
 .eh_frame      0x0000000000004700       0x30 /sources/glibc/src/glibc-2.37/build/libc_pic.a(strnlen-sse2.os)
 .eh_frame      0x0000000000004730       0x40 /sources/glibc/src/glibc-2.37/build/libc_pic.a(strcspn-generic.os)
 .eh_frame      0x0000000000004770       0x40 /sources/glibc/src/glibc-2.37/build/libc_pic.a(cacheinfo.os)
 .eh_frame      0x00000000000047b0       0x38 /sources/glibc/src/glibc-2.37/build/libc_pic.a(closedir.os)
 .eh_frame      0x00000000000047e8       0x50 /sources/glibc/src/glibc-2.37/build/libc_pic.a(rewinddir.os)
 .eh_frame      0x0000000000004838       0x58 /sources/glibc/src/glibc-2.37/build/libc_pic.a(readdir64.os)
 .eh_frame      0x0000000000004890       0x48 /sources/glibc/src/glibc-2.37/build/libc_pic.a(fdopendir.os)
 .eh_frame      0x00000000000048d8       0x30 /sources/glibc/src/glibc-2.37/build/libc_pic.a(uname.os)
 .eh_frame      0x0000000000004908       0x30 /sources/glibc/src/glibc-2.37/build/libc_pic.a(_exit.os)
 .eh_frame      0x0000000000004938       0x30 /sources/glibc/src/glibc-2.37/build/libc_pic.a(getpid.os)
 .eh_frame      0x0000000000004968       0x30 /sources/glibc/src/glibc-2.37/build/libc_pic.a(stat64.os)
 .eh_frame      0x0000000000004998       0x30 /sources/glibc/src/glibc-2.37/build/libc_pic.a(fstat64.os)
 .eh_frame      0x00000000000049c8       0x30 /sources/glibc/src/glibc-2.37/build/libc_pic.a(lstat64.os)
 .eh_frame      0x00000000000049f8       0x30 /sources/glibc/src/glibc-2.37/build/libc_pic.a(fstatat64.os)
 .eh_frame      0x0000000000004a28       0x38 /sources/glibc/src/glibc-2.37/build/libc_pic.a(openat64.os)
 .eh_frame      0x0000000000004a60       0x30 /sources/glibc/src/glibc-2.37/build/libc_pic.a(lseek64.os)
 .eh_frame      0x0000000000004a90       0x30 /sources/glibc/src/glibc-2.37/build/libc_pic.a(access.os)
 .eh_frame      0x0000000000004ac0       0x30 /sources/glibc/src/glibc-2.37/build/libc_pic.a(close_nocancel.os)
 .eh_frame      0x0000000000004af0       0x50 /sources/glibc/src/glibc-2.37/build/libc_pic.a(fcntl_nocancel.os)
 .eh_frame      0x0000000000004b40       0x38 /sources/glibc/src/glibc-2.37/build/libc_pic.a(open64_nocancel.os)
 .eh_frame      0x0000000000004b78       0x30 /sources/glibc/src/glibc-2.37/build/libc_pic.a(read_nocancel.os)
 .eh_frame      0x0000000000004ba8       0x30 /sources/glibc/src/glibc-2.37/build/libc_pic.a(pread64_nocancel.os)
 .eh_frame      0x0000000000004bd8       0x30 /sources/glibc/src/glibc-2.37/build/libc_pic.a(write_nocancel.os)
 .eh_frame      0x0000000000004c08       0x30 /sources/glibc/src/glibc-2.37/build/libc_pic.a(mmap64.os)
 .eh_frame      0x0000000000004c38       0x30 /sources/glibc/src/glibc-2.37/build/libc_pic.a(munmap.os)
 .eh_frame      0x0000000000004c68       0x30 /sources/glibc/src/glibc-2.37/build/libc_pic.a(mprotect.os)
 .eh_frame      0x0000000000004c98       0x88 /sources/glibc/src/glibc-2.37/build/libc_pic.a(profil.os)
 .eh_frame      0x0000000000004d20       0x30 /sources/glibc/src/glibc-2.37/build/libc_pic.a(prof-freq.os)
 .eh_frame      0x0000000000004d50       0x30 /sources/glibc/src/glibc-2.37/build/libc_pic.a(dl-addr-obj.os)
 .eh_frame      0x0000000000004d80       0x30 /sources/glibc/src/glibc-2.37/build/libc_pic.a(sigaction.os)
 .eh_frame      0x0000000000004db0       0xc8 /sources/glibc/src/glibc-2.37/build/libc_pic.a(libc_sigaction.os)
                                         0xd0 (size before relaxing)
 .eh_frame      0x0000000000004e78       0x30 /sources/glibc/src/glibc-2.37/build/libc_pic.a(errname.os)
 .eh_frame      0x0000000000004ea8       0x30 /sources/glibc/src/glibc-2.37/build/libc_pic.a(strchrnul.os)
 .eh_frame      0x0000000000004ed8       0x30 /sources/glibc/src/glibc-2.37/build/libc_pic.a(strchrnul-avx2.os)
 .eh_frame      0x0000000000004f08       0x30 /sources/glibc/src/glibc-2.37/build/libc_pic.a(strchrnul-avx2-rtm.os)
 .eh_frame      0x0000000000004f38       0x30 /sources/glibc/src/glibc-2.37/build/libc_pic.a(strchrnul-evex.os)
 .eh_frame      0x0000000000004f68       0x30 /sources/glibc/src/glibc-2.37/build/libc_pic.a(strchrnul-sse2.os)
 .eh_frame      0x0000000000004f98       0x30 /sources/glibc/src/glibc-2.37/build/libc_pic.a(setitimer.os)
 .eh_frame      0x0000000000004fc8       0x2c /sources/glibc/src/glibc-2.37/build/libc_pic.a(getdents64.os)
                                         0x30 (size before relaxing)

.sframe
 *(.sframe)

.gcc_except_table
 *(.gcc_except_table)

.gnu_extab
 *(.gnu_extab*)

.exception_ranges
 *(.exception_ranges)

.eh_frame
 *(.eh_frame)

.sframe
 *(.sframe)

.gnu_extab
 *(.gnu_extab)

.gcc_except_table
 *(.gcc_except_table)

.exception_ranges
 *(.exception_ranges)

.tdata
 *(.tdata)

.tbss           0x0000000000000000        0x4
 *(.tbss)
 .tbss          0x0000000000000000        0x4 /sources/glibc/src/glibc-2.37/build/libc_pic.a(errno.os)
                0x0000000000000000                errno
                0x0000000000000000                __libc_errno

.jcr
 *(.jcr)

.dynamic
 *(.dynamic)

.got
 *(.got)

.got.plt
 *(.got.plt)

.data           0x0000000000000000     0x1118
 *(.data)
 .data          0x0000000000000000        0x0 /sources/glibc/src/glibc-2.37/build/elf/librtld.mapT.o
 .data          0x0000000000000000     0x10e8 /sources/glibc/src/glibc-2.37/build/elf/dl-allobjs.os
                0x0000000000000000                _rtld_global
                0x0000000000000000                _rtld_local
 .data          0x00000000000010e8        0x0 /sources/glibc/src/glibc-2.37/build/libc_pic.a(check_fds.os)
 .data          0x00000000000010e8        0x0 /sources/glibc/src/glibc-2.37/build/libc_pic.a(errno.os)
 .data          0x00000000000010e8        0x0 /sources/glibc/src/glibc-2.37/build/libc_pic.a(setjmp.os)
 .data          0x00000000000010e8        0x0 /sources/glibc/src/glibc-2.37/build/libc_pic.a(__longjmp.os)
 .data          0x00000000000010e8        0x0 /sources/glibc/src/glibc-2.37/build/libc_pic.a(lowlevellock.os)
 .data          0x00000000000010e8        0x0 /sources/glibc/src/glibc-2.37/build/libc_pic.a(scratch_buffer_set_array_size.os)
 .data          0x00000000000010e8        0x0 /sources/glibc/src/glibc-2.37/build/libc_pic.a(memchr.os)
 .data          0x00000000000010e8        0x0 /sources/glibc/src/glibc-2.37/build/libc_pic.a(memcmp.os)
 .data          0x00000000000010e8        0x0 /sources/glibc/src/glibc-2.37/build/libc_pic.a(memcpy.os)
 .data          0x00000000000010e8        0x0 /sources/glibc/src/glibc-2.37/build/libc_pic.a(memmove.os)
 .data          0x00000000000010e8        0x0 /sources/glibc/src/glibc-2.37/build/libc_pic.a(mempcpy.os)
 .data          0x00000000000010e8        0x0 /sources/glibc/src/glibc-2.37/build/libc_pic.a(memset.os)
 .data          0x00000000000010e8        0x0 /sources/glibc/src/glibc-2.37/build/libc_pic.a(rawmemchr.os)
 .data          0x00000000000010e8        0x0 /sources/glibc/src/glibc-2.37/build/libc_pic.a(stpcpy.os)
 .data          0x00000000000010e8        0x0 /sources/glibc/src/glibc-2.37/build/libc_pic.a(strchr.os)
 .data          0x00000000000010e8        0x0 /sources/glibc/src/glibc-2.37/build/libc_pic.a(strcmp.os)
 .data          0x00000000000010e8        0x0 /sources/glibc/src/glibc-2.37/build/libc_pic.a(strcspn.os)
 .data          0x00000000000010e8        0x0 /sources/glibc/src/glibc-2.37/build/libc_pic.a(strdup.os)
 .data          0x00000000000010e8        0x0 /sources/glibc/src/glibc-2.37/build/libc_pic.a(strerrorname_np.os)
 .data          0x00000000000010e8        0x0 /sources/glibc/src/glibc-2.37/build/libc_pic.a(strlen.os)
 .data          0x00000000000010e8        0x0 /sources/glibc/src/glibc-2.37/build/libc_pic.a(strncmp.os)
 .data          0x00000000000010e8        0x0 /sources/glibc/src/glibc-2.37/build/libc_pic.a(strnlen.os)
 .data          0x00000000000010e8        0x0 /sources/glibc/src/glibc-2.37/build/libc_pic.a(memchr-avx2.os)
 .data          0x00000000000010e8        0x0 /sources/glibc/src/glibc-2.37/build/libc_pic.a(memchr-avx2-rtm.os)
 .data          0x00000000000010e8        0x0 /sources/glibc/src/glibc-2.37/build/libc_pic.a(memchr-evex.os)
 .data          0x00000000000010e8        0x0 /sources/glibc/src/glibc-2.37/build/libc_pic.a(memchr-evex-rtm.os)
 .data          0x00000000000010e8        0x0 /sources/glibc/src/glibc-2.37/build/libc_pic.a(memchr-sse2.os)
 .data          0x00000000000010e8        0x0 /sources/glibc/src/glibc-2.37/build/libc_pic.a(memcmp-avx2-movbe.os)
 .data          0x00000000000010e8        0x0 /sources/glibc/src/glibc-2.37/build/libc_pic.a(memcmp-avx2-movbe-rtm.os)
 .data          0x00000000000010e8        0x0 /sources/glibc/src/glibc-2.37/build/libc_pic.a(memcmp-evex-movbe.os)
 .data          0x00000000000010e8        0x0 /sources/glibc/src/glibc-2.37/build/libc_pic.a(memcmp-sse2.os)
 .data          0x00000000000010e8        0x0 /sources/glibc/src/glibc-2.37/build/libc_pic.a(memmove-avx-unaligned-erms.os)
 .data          0x00000000000010e8        0x0 /sources/glibc/src/glibc-2.37/build/libc_pic.a(memmove-avx-unaligned-erms-rtm.os)
 .data          0x00000000000010e8        0x0 /sources/glibc/src/glibc-2.37/build/libc_pic.a(memmove-avx512-no-vzeroupper.os)
 .data          0x00000000000010e8        0x0 /sources/glibc/src/glibc-2.37/build/libc_pic.a(memmove-avx512-unaligned-erms.os)
 .data          0x00000000000010e8        0x0 /sources/glibc/src/glibc-2.37/build/libc_pic.a(memmove-erms.os)
 .data          0x00000000000010e8        0x0 /sources/glibc/src/glibc-2.37/build/libc_pic.a(memmove-evex-unaligned-erms.os)
 .data          0x00000000000010e8        0x0 /sources/glibc/src/glibc-2.37/build/libc_pic.a(memmove-sse2-unaligned-erms.os)
 .data          0x00000000000010e8        0x0 /sources/glibc/src/glibc-2.37/build/libc_pic.a(memmove-ssse3.os)
 .data          0x00000000000010e8        0x0 /sources/glibc/src/glibc-2.37/build/libc_pic.a(memset-avx2-unaligned-erms.os)
 .data          0x00000000000010e8        0x0 /sources/glibc/src/glibc-2.37/build/libc_pic.a(memset-avx2-unaligned-erms-rtm.os)
 .data          0x00000000000010e8        0x0 /sources/glibc/src/glibc-2.37/build/libc_pic.a(memset-avx512-no-vzeroupper.os)
 .data          0x00000000000010e8        0x0 /sources/glibc/src/glibc-2.37/build/libc_pic.a(memset-avx512-unaligned-erms.os)
 .data          0x00000000000010e8        0x0 /sources/glibc/src/glibc-2.37/build/libc_pic.a(memset-erms.os)
 .data          0x00000000000010e8        0x0 /sources/glibc/src/glibc-2.37/build/libc_pic.a(memset-evex-unaligned-erms.os)
 .data          0x00000000000010e8        0x0 /sources/glibc/src/glibc-2.37/build/libc_pic.a(memset-sse2-unaligned-erms.os)
 .data          0x00000000000010e8        0x0 /sources/glibc/src/glibc-2.37/build/libc_pic.a(rawmemchr-avx2.os)
 .data          0x00000000000010e8        0x0 /sources/glibc/src/glibc-2.37/build/libc_pic.a(rawmemchr-avx2-rtm.os)
 .data          0x00000000000010e8        0x0 /sources/glibc/src/glibc-2.37/build/libc_pic.a(rawmemchr-evex.os)
 .data          0x00000000000010e8        0x0 /sources/glibc/src/glibc-2.37/build/libc_pic.a(rawmemchr-evex-rtm.os)
 .data          0x00000000000010e8        0x0 /sources/glibc/src/glibc-2.37/build/libc_pic.a(rawmemchr-sse2.os)
 .data          0x00000000000010e8        0x0 /sources/glibc/src/glibc-2.37/build/libc_pic.a(stpcpy-avx2.os)
 .data          0x00000000000010e8        0x0 /sources/glibc/src/glibc-2.37/build/libc_pic.a(stpcpy-avx2-rtm.os)
 .data          0x00000000000010e8        0x0 /sources/glibc/src/glibc-2.37/build/libc_pic.a(stpcpy-evex.os)
 .data          0x00000000000010e8        0x0 /sources/glibc/src/glibc-2.37/build/libc_pic.a(stpcpy-sse2.os)
 .data          0x00000000000010e8        0x0 /sources/glibc/src/glibc-2.37/build/libc_pic.a(stpcpy-sse2-unaligned.os)
 .data          0x00000000000010e8        0x0 /sources/glibc/src/glibc-2.37/build/libc_pic.a(strchr-avx2.os)
 .data          0x00000000000010e8        0x0 /sources/glibc/src/glibc-2.37/build/libc_pic.a(strchr-avx2-rtm.os)
 .data          0x00000000000010e8        0x0 /sources/glibc/src/glibc-2.37/build/libc_pic.a(strchr-evex.os)
 .data          0x00000000000010e8        0x0 /sources/glibc/src/glibc-2.37/build/libc_pic.a(strchr-sse2.os)
 .data          0x00000000000010e8        0x0 /sources/glibc/src/glibc-2.37/build/libc_pic.a(strchr-sse2-no-bsf.os)
 .data          0x00000000000010e8        0x0 /sources/glibc/src/glibc-2.37/build/libc_pic.a(strcmp-avx2.os)
 .data          0x00000000000010e8        0x0 /sources/glibc/src/glibc-2.37/build/libc_pic.a(strcmp-avx2-rtm.os)
 .data          0x00000000000010e8        0x0 /sources/glibc/src/glibc-2.37/build/libc_pic.a(strcmp-evex.os)
 .data          0x00000000000010e8        0x0 /sources/glibc/src/glibc-2.37/build/libc_pic.a(strcmp-sse2.os)
 .data          0x00000000000010e8        0x0 /sources/glibc/src/glibc-2.37/build/libc_pic.a(strcmp-sse2-unaligned.os)
 .data          0x00000000000010e8        0x0 /sources/glibc/src/glibc-2.37/build/libc_pic.a(strcmp-sse4_2.os)
 .data          0x00000000000010e8        0x0 /sources/glibc/src/glibc-2.37/build/libc_pic.a(strcspn-sse4.os)
 .data          0x00000000000010e8        0x0 /sources/glibc/src/glibc-2.37/build/libc_pic.a(strlen-avx2.os)
 .data          0x00000000000010e8        0x0 /sources/glibc/src/glibc-2.37/build/libc_pic.a(strlen-avx2-rtm.os)
 .data          0x00000000000010e8        0x0 /sources/glibc/src/glibc-2.37/build/libc_pic.a(strlen-evex.os)
 .data          0x00000000000010e8        0x0 /sources/glibc/src/glibc-2.37/build/libc_pic.a(strlen-sse2.os)
 .data          0x00000000000010e8        0x0 /sources/glibc/src/glibc-2.37/build/libc_pic.a(strncmp-avx2.os)
 .data          0x00000000000010e8        0x0 /sources/glibc/src/glibc-2.37/build/libc_pic.a(strncmp-avx2-rtm.os)
 .data          0x00000000000010e8        0x0 /sources/glibc/src/glibc-2.37/build/libc_pic.a(strncmp-evex.os)
 .data          0x00000000000010e8        0x0 /sources/glibc/src/glibc-2.37/build/libc_pic.a(strncmp-sse2.os)
 .data          0x00000000000010e8        0x0 /sources/glibc/src/glibc-2.37/build/libc_pic.a(strncmp-sse4_2.os)
 .data          0x00000000000010e8        0x0 /sources/glibc/src/glibc-2.37/build/libc_pic.a(strnlen-avx2.os)
 .data          0x00000000000010e8        0x0 /sources/glibc/src/glibc-2.37/build/libc_pic.a(strnlen-avx2-rtm.os)
 .data          0x00000000000010e8        0x0 /sources/glibc/src/glibc-2.37/build/libc_pic.a(strnlen-evex.os)
 .data          0x00000000000010e8        0x0 /sources/glibc/src/glibc-2.37/build/libc_pic.a(strnlen-sse2.os)
 .data          0x00000000000010e8        0x0 /sources/glibc/src/glibc-2.37/build/libc_pic.a(varshift.os)
 .data          0x00000000000010e8        0x0 /sources/glibc/src/glibc-2.37/build/libc_pic.a(strcspn-generic.os)
 .data          0x00000000000010e8       0x30 /sources/glibc/src/glibc-2.37/build/libc_pic.a(cacheinfo.os)
                0x00000000000010e8                __x86_rep_stosb_threshold
                0x00000000000010f0                __x86_rep_movsb_threshold
                0x00000000000010f8                __x86_shared_cache_size
                0x0000000000001100                __x86_shared_cache_size_half
                0x0000000000001108                __x86_data_cache_size
                0x0000000000001110                __x86_data_cache_size_half
 .data          0x0000000000001118        0x0 /sources/glibc/src/glibc-2.37/build/libc_pic.a(closedir.os)
 .data          0x0000000000001118        0x0 /sources/glibc/src/glibc-2.37/build/libc_pic.a(rewinddir.os)
 .data          0x0000000000001118        0x0 /sources/glibc/src/glibc-2.37/build/libc_pic.a(readdir64.os)
 .data          0x0000000000001118        0x0 /sources/glibc/src/glibc-2.37/build/libc_pic.a(fdopendir.os)
 .data          0x0000000000001118        0x0 /sources/glibc/src/glibc-2.37/build/libc_pic.a(uname.os)
 .data          0x0000000000001118        0x0 /sources/glibc/src/glibc-2.37/build/libc_pic.a(_exit.os)
 .data          0x0000000000001118        0x0 /sources/glibc/src/glibc-2.37/build/libc_pic.a(getpid.os)
 .data          0x0000000000001118        0x0 /sources/glibc/src/glibc-2.37/build/libc_pic.a(environ.os)
 .data          0x0000000000001118        0x0 /sources/glibc/src/glibc-2.37/build/libc_pic.a(stat64.os)
 .data          0x0000000000001118        0x0 /sources/glibc/src/glibc-2.37/build/libc_pic.a(fstat64.os)
 .data          0x0000000000001118        0x0 /sources/glibc/src/glibc-2.37/build/libc_pic.a(lstat64.os)
 .data          0x0000000000001118        0x0 /sources/glibc/src/glibc-2.37/build/libc_pic.a(fstatat64.os)
 .data          0x0000000000001118        0x0 /sources/glibc/src/glibc-2.37/build/libc_pic.a(openat64.os)
 .data          0x0000000000001118        0x0 /sources/glibc/src/glibc-2.37/build/libc_pic.a(lseek64.os)
 .data          0x0000000000001118        0x0 /sources/glibc/src/glibc-2.37/build/libc_pic.a(access.os)
 .data          0x0000000000001118        0x0 /sources/glibc/src/glibc-2.37/build/libc_pic.a(close_nocancel.os)
 .data          0x0000000000001118        0x0 /sources/glibc/src/glibc-2.37/build/libc_pic.a(fcntl_nocancel.os)
 .data          0x0000000000001118        0x0 /sources/glibc/src/glibc-2.37/build/libc_pic.a(open64_nocancel.os)
 .data          0x0000000000001118        0x0 /sources/glibc/src/glibc-2.37/build/libc_pic.a(read_nocancel.os)
 .data          0x0000000000001118        0x0 /sources/glibc/src/glibc-2.37/build/libc_pic.a(pread64_nocancel.os)
 .data          0x0000000000001118        0x0 /sources/glibc/src/glibc-2.37/build/libc_pic.a(write_nocancel.os)
 .data          0x0000000000001118        0x0 /sources/glibc/src/glibc-2.37/build/libc_pic.a(mmap64.os)
 .data          0x0000000000001118        0x0 /sources/glibc/src/glibc-2.37/build/libc_pic.a(munmap.os)
 .data          0x0000000000001118        0x0 /sources/glibc/src/glibc-2.37/build/libc_pic.a(mprotect.os)
 .data          0x0000000000001118        0x0 /sources/glibc/src/glibc-2.37/build/libc_pic.a(single_threaded.os)
 .data          0x0000000000001118        0x0 /sources/glibc/src/glibc-2.37/build/libc_pic.a(profil.os)
 .data          0x0000000000001118        0x0 /sources/glibc/src/glibc-2.37/build/libc_pic.a(prof-freq.os)
 .data          0x0000000000001118        0x0 /sources/glibc/src/glibc-2.37/build/libc_pic.a(dl-addr-obj.os)
 .data          0x0000000000001118        0x0 /sources/glibc/src/glibc-2.37/build/libc_pic.a(sigaction.os)
 .data          0x0000000000001118        0x0 /sources/glibc/src/glibc-2.37/build/libc_pic.a(libc_sigaction.os)
 .data          0x0000000000001118        0x0 /sources/glibc/src/glibc-2.37/build/libc_pic.a(errname.os)
 .data          0x0000000000001118        0x0 /sources/glibc/src/glibc-2.37/build/libc_pic.a(strchrnul.os)
 .data          0x0000000000001118        0x0 /sources/glibc/src/glibc-2.37/build/libc_pic.a(strchrnul-avx2.os)
 .data          0x0000000000001118        0x0 /sources/glibc/src/glibc-2.37/build/libc_pic.a(strchrnul-avx2-rtm.os)
 .data          0x0000000000001118        0x0 /sources/glibc/src/glibc-2.37/build/libc_pic.a(strchrnul-evex.os)
 .data          0x0000000000001118        0x0 /sources/glibc/src/glibc-2.37/build/libc_pic.a(strchrnul-sse2.os)
 .data          0x0000000000001118        0x0 /sources/glibc/src/glibc-2.37/build/libc_pic.a(setitimer.os)
 .data          0x0000000000001118        0x0 /sources/glibc/src/glibc-2.37/build/libc_pic.a(getdents64.os)

.data.rel.ro    0x0000000000000000     0x1400
 .data.rel.ro   0x0000000000000000     0x1400 /sources/glibc/src/glibc-2.37/build/elf/dl-allobjs.os
                0x0000000000000040                __rtld_search_dirs
                0x0000000000000070                __rtld_env_path_list
                0x0000000000000080                __stack_prot
                0x0000000000000088                __rseq_offset
                0x0000000000000090                __rseq_size
                0x0000000000000ff0                __rtld_realloc
                0x0000000000000ff8                __rtld_malloc
                0x0000000000001000                __rtld_free
                0x0000000000001008                __rtld_calloc
                0x0000000000001010                ___rtld_mutex_unlock
                0x0000000000001018                ___rtld_mutex_lock
                0x0000000000001020                _dl_random
                0x0000000000001028                __libc_stack_end
                0x0000000000001028                __GI___libc_stack_end
                0x0000000000001030                __GI___libc_enable_secure
                0x0000000000001030                __libc_enable_secure
                0x0000000000001050                __pointer_chk_guard_local
                0x0000000000001058                __GI__dl_argv
                0x0000000000001058                _dl_argv
                0x0000000000001060                _dl_argc
                0x0000000000001080                _rtld_global_ro
                0x0000000000001080                _rtld_local_ro

.data.rel.ro.local
                0x0000000000000000       0x30
 .data.rel.ro.local
                0x0000000000000000       0x28 /sources/glibc/src/glibc-2.37/build/elf/dl-allobjs.os
                0x0000000000000000                __x86_cpu_features_p
 .data.rel.ro.local
                0x0000000000000028        0x8 /sources/glibc/src/glibc-2.37/build/libc_pic.a(cacheinfo.os)
                0x0000000000000028                __x86_cacheinfo_p

.data1
 *(.data1)

.bss            0x0000000000000000      0x2a0
 *(.bss)
 .bss           0x0000000000000000        0x0 /sources/glibc/src/glibc-2.37/build/elf/librtld.mapT.o
 .bss           0x0000000000000000      0x190 /sources/glibc/src/glibc-2.37/build/elf/dl-allobjs.os
                0x0000000000000018                _r_debug_extended
                0x0000000000000018                _r_debug
                0x00000000000000d8                __nptl_initial_report_events
                0x00000000000000d8                __GI___nptl_initial_report_events
                0x0000000000000110                _dl_hwcaps_priorities_length
                0x0000000000000118                _dl_hwcaps_priorities
                0x0000000000000120                __rtld_tls_init_tp_called
                0x0000000000000188                __curbrk
 .bss           0x0000000000000190        0x0 /sources/glibc/src/glibc-2.37/build/libc_pic.a(check_fds.os)
 .bss           0x0000000000000190        0x0 /sources/glibc/src/glibc-2.37/build/libc_pic.a(errno.os)
 .bss           0x0000000000000190        0x0 /sources/glibc/src/glibc-2.37/build/libc_pic.a(setjmp.os)
 .bss           0x0000000000000190        0x0 /sources/glibc/src/glibc-2.37/build/libc_pic.a(__longjmp.os)
 .bss           0x0000000000000190        0x4 /sources/glibc/src/glibc-2.37/build/libc_pic.a(lowlevellock.os)
                0x0000000000000190                __GI___pthread_force_elision
                0x0000000000000190                __pthread_force_elision
 .bss           0x0000000000000194        0x0 /sources/glibc/src/glibc-2.37/build/libc_pic.a(scratch_buffer_set_array_size.os)
 .bss           0x0000000000000194        0x0 /sources/glibc/src/glibc-2.37/build/libc_pic.a(memchr.os)
 .bss           0x0000000000000194        0x0 /sources/glibc/src/glibc-2.37/build/libc_pic.a(memcmp.os)
 .bss           0x0000000000000194        0x0 /sources/glibc/src/glibc-2.37/build/libc_pic.a(memcpy.os)
 .bss           0x0000000000000194        0x0 /sources/glibc/src/glibc-2.37/build/libc_pic.a(memmove.os)
 .bss           0x0000000000000194        0x0 /sources/glibc/src/glibc-2.37/build/libc_pic.a(mempcpy.os)
 .bss           0x0000000000000194        0x0 /sources/glibc/src/glibc-2.37/build/libc_pic.a(memset.os)
 .bss           0x0000000000000194        0x0 /sources/glibc/src/glibc-2.37/build/libc_pic.a(rawmemchr.os)
 .bss           0x0000000000000194        0x0 /sources/glibc/src/glibc-2.37/build/libc_pic.a(stpcpy.os)
 .bss           0x0000000000000194        0x0 /sources/glibc/src/glibc-2.37/build/libc_pic.a(strchr.os)
 .bss           0x0000000000000194        0x0 /sources/glibc/src/glibc-2.37/build/libc_pic.a(strcmp.os)
 .bss           0x0000000000000194        0x0 /sources/glibc/src/glibc-2.37/build/libc_pic.a(strcspn.os)
 .bss           0x0000000000000194        0x0 /sources/glibc/src/glibc-2.37/build/libc_pic.a(strdup.os)
 .bss           0x0000000000000194        0x0 /sources/glibc/src/glibc-2.37/build/libc_pic.a(strerrorname_np.os)
 .bss           0x0000000000000194        0x0 /sources/glibc/src/glibc-2.37/build/libc_pic.a(strlen.os)
 .bss           0x0000000000000194        0x0 /sources/glibc/src/glibc-2.37/build/libc_pic.a(strncmp.os)
 .bss           0x0000000000000194        0x0 /sources/glibc/src/glibc-2.37/build/libc_pic.a(strnlen.os)
 .bss           0x0000000000000194        0x0 /sources/glibc/src/glibc-2.37/build/libc_pic.a(memchr-avx2.os)
 .bss           0x0000000000000194        0x0 /sources/glibc/src/glibc-2.37/build/libc_pic.a(memchr-avx2-rtm.os)
 .bss           0x0000000000000194        0x0 /sources/glibc/src/glibc-2.37/build/libc_pic.a(memchr-evex.os)
 .bss           0x0000000000000194        0x0 /sources/glibc/src/glibc-2.37/build/libc_pic.a(memchr-evex-rtm.os)
 .bss           0x0000000000000194        0x0 /sources/glibc/src/glibc-2.37/build/libc_pic.a(memchr-sse2.os)
 .bss           0x0000000000000194        0x0 /sources/glibc/src/glibc-2.37/build/libc_pic.a(memcmp-avx2-movbe.os)
 .bss           0x0000000000000194        0x0 /sources/glibc/src/glibc-2.37/build/libc_pic.a(memcmp-avx2-movbe-rtm.os)
 .bss           0x0000000000000194        0x0 /sources/glibc/src/glibc-2.37/build/libc_pic.a(memcmp-evex-movbe.os)
 .bss           0x0000000000000194        0x0 /sources/glibc/src/glibc-2.37/build/libc_pic.a(memcmp-sse2.os)
 .bss           0x0000000000000194        0x0 /sources/glibc/src/glibc-2.37/build/libc_pic.a(memmove-avx-unaligned-erms.os)
 .bss           0x0000000000000194        0x0 /sources/glibc/src/glibc-2.37/build/libc_pic.a(memmove-avx-unaligned-erms-rtm.os)
 .bss           0x0000000000000194        0x0 /sources/glibc/src/glibc-2.37/build/libc_pic.a(memmove-avx512-no-vzeroupper.os)
 .bss           0x0000000000000194        0x0 /sources/glibc/src/glibc-2.37/build/libc_pic.a(memmove-avx512-unaligned-erms.os)
 .bss           0x0000000000000194        0x0 /sources/glibc/src/glibc-2.37/build/libc_pic.a(memmove-erms.os)
 .bss           0x0000000000000194        0x0 /sources/glibc/src/glibc-2.37/build/libc_pic.a(memmove-evex-unaligned-erms.os)
 .bss           0x0000000000000194        0x0 /sources/glibc/src/glibc-2.37/build/libc_pic.a(memmove-sse2-unaligned-erms.os)
 .bss           0x0000000000000194        0x0 /sources/glibc/src/glibc-2.37/build/libc_pic.a(memmove-ssse3.os)
 .bss           0x0000000000000194        0x0 /sources/glibc/src/glibc-2.37/build/libc_pic.a(memset-avx2-unaligned-erms.os)
 .bss           0x0000000000000194        0x0 /sources/glibc/src/glibc-2.37/build/libc_pic.a(memset-avx2-unaligned-erms-rtm.os)
 .bss           0x0000000000000194        0x0 /sources/glibc/src/glibc-2.37/build/libc_pic.a(memset-avx512-no-vzeroupper.os)
 .bss           0x0000000000000194        0x0 /sources/glibc/src/glibc-2.37/build/libc_pic.a(memset-avx512-unaligned-erms.os)
 .bss           0x0000000000000194        0x0 /sources/glibc/src/glibc-2.37/build/libc_pic.a(memset-erms.os)
 .bss           0x0000000000000194        0x0 /sources/glibc/src/glibc-2.37/build/libc_pic.a(memset-evex-unaligned-erms.os)
 .bss           0x0000000000000194        0x0 /sources/glibc/src/glibc-2.37/build/libc_pic.a(memset-sse2-unaligned-erms.os)
 .bss           0x0000000000000194        0x0 /sources/glibc/src/glibc-2.37/build/libc_pic.a(rawmemchr-avx2.os)
 .bss           0x0000000000000194        0x0 /sources/glibc/src/glibc-2.37/build/libc_pic.a(rawmemchr-avx2-rtm.os)
 .bss           0x0000000000000194        0x0 /sources/glibc/src/glibc-2.37/build/libc_pic.a(rawmemchr-evex.os)
 .bss           0x0000000000000194        0x0 /sources/glibc/src/glibc-2.37/build/libc_pic.a(rawmemchr-evex-rtm.os)
 .bss           0x0000000000000194        0x0 /sources/glibc/src/glibc-2.37/build/libc_pic.a(rawmemchr-sse2.os)
 .bss           0x0000000000000194        0x0 /sources/glibc/src/glibc-2.37/build/libc_pic.a(stpcpy-avx2.os)
 .bss           0x0000000000000194        0x0 /sources/glibc/src/glibc-2.37/build/libc_pic.a(stpcpy-avx2-rtm.os)
 .bss           0x0000000000000194        0x0 /sources/glibc/src/glibc-2.37/build/libc_pic.a(stpcpy-evex.os)
 .bss           0x0000000000000194        0x0 /sources/glibc/src/glibc-2.37/build/libc_pic.a(stpcpy-sse2.os)
 .bss           0x0000000000000194        0x0 /sources/glibc/src/glibc-2.37/build/libc_pic.a(stpcpy-sse2-unaligned.os)
 .bss           0x0000000000000194        0x0 /sources/glibc/src/glibc-2.37/build/libc_pic.a(strchr-avx2.os)
 .bss           0x0000000000000194        0x0 /sources/glibc/src/glibc-2.37/build/libc_pic.a(strchr-avx2-rtm.os)
 .bss           0x0000000000000194        0x0 /sources/glibc/src/glibc-2.37/build/libc_pic.a(strchr-evex.os)
 .bss           0x0000000000000194        0x0 /sources/glibc/src/glibc-2.37/build/libc_pic.a(strchr-sse2.os)
 .bss           0x0000000000000194        0x0 /sources/glibc/src/glibc-2.37/build/libc_pic.a(strchr-sse2-no-bsf.os)
 .bss           0x0000000000000194        0x0 /sources/glibc/src/glibc-2.37/build/libc_pic.a(strcmp-avx2.os)
 .bss           0x0000000000000194        0x0 /sources/glibc/src/glibc-2.37/build/libc_pic.a(strcmp-avx2-rtm.os)
 .bss           0x0000000000000194        0x0 /sources/glibc/src/glibc-2.37/build/libc_pic.a(strcmp-evex.os)
 .bss           0x0000000000000194        0x0 /sources/glibc/src/glibc-2.37/build/libc_pic.a(strcmp-sse2.os)
 .bss           0x0000000000000194        0x0 /sources/glibc/src/glibc-2.37/build/libc_pic.a(strcmp-sse2-unaligned.os)
 .bss           0x0000000000000194        0x0 /sources/glibc/src/glibc-2.37/build/libc_pic.a(strcmp-sse4_2.os)
 .bss           0x0000000000000194        0x0 /sources/glibc/src/glibc-2.37/build/libc_pic.a(strcspn-sse4.os)
 .bss           0x0000000000000194        0x0 /sources/glibc/src/glibc-2.37/build/libc_pic.a(strlen-avx2.os)
 .bss           0x0000000000000194        0x0 /sources/glibc/src/glibc-2.37/build/libc_pic.a(strlen-avx2-rtm.os)
 .bss           0x0000000000000194        0x0 /sources/glibc/src/glibc-2.37/build/libc_pic.a(strlen-evex.os)
 .bss           0x0000000000000194        0x0 /sources/glibc/src/glibc-2.37/build/libc_pic.a(strlen-sse2.os)
 .bss           0x0000000000000194        0x0 /sources/glibc/src/glibc-2.37/build/libc_pic.a(strncmp-avx2.os)
 .bss           0x0000000000000194        0x0 /sources/glibc/src/glibc-2.37/build/libc_pic.a(strncmp-avx2-rtm.os)
 .bss           0x0000000000000194        0x0 /sources/glibc/src/glibc-2.37/build/libc_pic.a(strncmp-evex.os)
 .bss           0x0000000000000194        0x0 /sources/glibc/src/glibc-2.37/build/libc_pic.a(strncmp-sse2.os)
 .bss           0x0000000000000194        0x0 /sources/glibc/src/glibc-2.37/build/libc_pic.a(strncmp-sse4_2.os)
 .bss           0x0000000000000194        0x0 /sources/glibc/src/glibc-2.37/build/libc_pic.a(strnlen-avx2.os)
 .bss           0x0000000000000194        0x0 /sources/glibc/src/glibc-2.37/build/libc_pic.a(strnlen-avx2-rtm.os)
 .bss           0x0000000000000194        0x0 /sources/glibc/src/glibc-2.37/build/libc_pic.a(strnlen-evex.os)
 .bss           0x0000000000000194        0x0 /sources/glibc/src/glibc-2.37/build/libc_pic.a(strnlen-sse2.os)
 .bss           0x0000000000000194        0x0 /sources/glibc/src/glibc-2.37/build/libc_pic.a(varshift.os)
 .bss           0x0000000000000194        0x0 /sources/glibc/src/glibc-2.37/build/libc_pic.a(strcspn-generic.os)
 *fill*         0x0000000000000194        0x4 
 .bss           0x0000000000000198       0x18 /sources/glibc/src/glibc-2.37/build/libc_pic.a(cacheinfo.os)
                0x0000000000000198                __x86_string_control
                0x00000000000001a0                __x86_rep_movsb_stop_threshold
                0x00000000000001a8                __x86_shared_non_temporal_threshold
 .bss           0x00000000000001b0        0x0 /sources/glibc/src/glibc-2.37/build/libc_pic.a(closedir.os)
 .bss           0x00000000000001b0        0x0 /sources/glibc/src/glibc-2.37/build/libc_pic.a(rewinddir.os)
 .bss           0x00000000000001b0        0x0 /sources/glibc/src/glibc-2.37/build/libc_pic.a(readdir64.os)
 .bss           0x00000000000001b0        0x0 /sources/glibc/src/glibc-2.37/build/libc_pic.a(fdopendir.os)
 .bss           0x00000000000001b0        0x0 /sources/glibc/src/glibc-2.37/build/libc_pic.a(uname.os)
 .bss           0x00000000000001b0        0x0 /sources/glibc/src/glibc-2.37/build/libc_pic.a(_exit.os)
 .bss           0x00000000000001b0        0x0 /sources/glibc/src/glibc-2.37/build/libc_pic.a(getpid.os)
 .bss           0x00000000000001b0        0x8 /sources/glibc/src/glibc-2.37/build/libc_pic.a(environ.os)
                0x00000000000001b0                _environ
                0x00000000000001b0                __environ
                0x00000000000001b0                environ
 .bss           0x00000000000001b8        0x0 /sources/glibc/src/glibc-2.37/build/libc_pic.a(stat64.os)
 .bss           0x00000000000001b8        0x0 /sources/glibc/src/glibc-2.37/build/libc_pic.a(fstat64.os)
 .bss           0x00000000000001b8        0x0 /sources/glibc/src/glibc-2.37/build/libc_pic.a(lstat64.os)
 .bss           0x00000000000001b8        0x0 /sources/glibc/src/glibc-2.37/build/libc_pic.a(fstatat64.os)
 .bss           0x00000000000001b8        0x0 /sources/glibc/src/glibc-2.37/build/libc_pic.a(openat64.os)
 .bss           0x00000000000001b8        0x0 /sources/glibc/src/glibc-2.37/build/libc_pic.a(lseek64.os)
 .bss           0x00000000000001b8        0x0 /sources/glibc/src/glibc-2.37/build/libc_pic.a(access.os)
 .bss           0x00000000000001b8        0x0 /sources/glibc/src/glibc-2.37/build/libc_pic.a(close_nocancel.os)
 .bss           0x00000000000001b8        0x0 /sources/glibc/src/glibc-2.37/build/libc_pic.a(fcntl_nocancel.os)
 .bss           0x00000000000001b8        0x0 /sources/glibc/src/glibc-2.37/build/libc_pic.a(open64_nocancel.os)
 .bss           0x00000000000001b8        0x0 /sources/glibc/src/glibc-2.37/build/libc_pic.a(read_nocancel.os)
 .bss           0x00000000000001b8        0x0 /sources/glibc/src/glibc-2.37/build/libc_pic.a(pread64_nocancel.os)
 .bss           0x00000000000001b8        0x0 /sources/glibc/src/glibc-2.37/build/libc_pic.a(write_nocancel.os)
 .bss           0x00000000000001b8        0x0 /sources/glibc/src/glibc-2.37/build/libc_pic.a(mmap64.os)
 .bss           0x00000000000001b8        0x0 /sources/glibc/src/glibc-2.37/build/libc_pic.a(munmap.os)
 .bss           0x00000000000001b8        0x0 /sources/glibc/src/glibc-2.37/build/libc_pic.a(mprotect.os)
 .bss           0x00000000000001b8        0x1 /sources/glibc/src/glibc-2.37/build/libc_pic.a(single_threaded.os)
                0x00000000000001b8                __libc_single_threaded
                0x00000000000001b8                __libc_single_threaded_internal
 *fill*         0x00000000000001b9        0x7 
 .bss           0x00000000000001c0       0xe0 /sources/glibc/src/glibc-2.37/build/libc_pic.a(profil.os)
 .bss           0x00000000000002a0        0x0 /sources/glibc/src/glibc-2.37/build/libc_pic.a(prof-freq.os)
 .bss           0x00000000000002a0        0x0 /sources/glibc/src/glibc-2.37/build/libc_pic.a(dl-addr-obj.os)
 .bss           0x00000000000002a0        0x0 /sources/glibc/src/glibc-2.37/build/libc_pic.a(sigaction.os)
 .bss           0x00000000000002a0        0x0 /sources/glibc/src/glibc-2.37/build/libc_pic.a(libc_sigaction.os)
 .bss           0x00000000000002a0        0x0 /sources/glibc/src/glibc-2.37/build/libc_pic.a(errname.os)
 .bss           0x00000000000002a0        0x0 /sources/glibc/src/glibc-2.37/build/libc_pic.a(strchrnul.os)
 .bss           0x00000000000002a0        0x0 /sources/glibc/src/glibc-2.37/build/libc_pic.a(strchrnul-avx2.os)
 .bss           0x00000000000002a0        0x0 /sources/glibc/src/glibc-2.37/build/libc_pic.a(strchrnul-avx2-rtm.os)
 .bss           0x00000000000002a0        0x0 /sources/glibc/src/glibc-2.37/build/libc_pic.a(strchrnul-evex.os)
 .bss           0x00000000000002a0        0x0 /sources/glibc/src/glibc-2.37/build/libc_pic.a(strchrnul-sse2.os)
 .bss           0x00000000000002a0        0x0 /sources/glibc/src/glibc-2.37/build/libc_pic.a(setitimer.os)
 .bss           0x00000000000002a0        0x0 /sources/glibc/src/glibc-2.37/build/libc_pic.a(getdents64.os)

.lbss
 *(.lbss)

.lrodata
 *(.lrodata)

.ldata
 *(.ldata)

.stab
 *(.stab)

.stabstr
 *(.stabstr)

.stab.excl
 *(.stab.excl)

.stab.exclstr
 *(.stab.exclstr)

.stab.index
 *(.stab.index)

.stab.indexstr
 *(.stab.indexstr)

.comment        0x0000000000000000      0x817
 *(.comment)
 .comment       0x0000000000000000      0x415 /sources/glibc/src/glibc-2.37/build/elf/dl-allobjs.os
 .comment       0x0000000000000415       0x13 /sources/glibc/src/glibc-2.37/build/libc_pic.a(check_fds.os)
 .comment       0x0000000000000428       0x13 /sources/glibc/src/glibc-2.37/build/libc_pic.a(errno.os)
 .comment       0x000000000000043b       0x13 /sources/glibc/src/glibc-2.37/build/libc_pic.a(lowlevellock.os)
 .comment       0x000000000000044e       0x13 /sources/glibc/src/glibc-2.37/build/libc_pic.a(scratch_buffer_set_array_size.os)
 .comment       0x0000000000000461       0x13 /sources/glibc/src/glibc-2.37/build/libc_pic.a(memchr.os)
 .comment       0x0000000000000474       0x13 /sources/glibc/src/glibc-2.37/build/libc_pic.a(memcmp.os)
 .comment       0x0000000000000487       0x13 /sources/glibc/src/glibc-2.37/build/libc_pic.a(memcpy.os)
 .comment       0x000000000000049a       0x13 /sources/glibc/src/glibc-2.37/build/libc_pic.a(memmove.os)
 .comment       0x00000000000004ad       0x13 /sources/glibc/src/glibc-2.37/build/libc_pic.a(mempcpy.os)
 .comment       0x00000000000004c0       0x13 /sources/glibc/src/glibc-2.37/build/libc_pic.a(memset.os)
 .comment       0x00000000000004d3       0x13 /sources/glibc/src/glibc-2.37/build/libc_pic.a(rawmemchr.os)
 .comment       0x00000000000004e6       0x13 /sources/glibc/src/glibc-2.37/build/libc_pic.a(stpcpy.os)
 .comment       0x00000000000004f9       0x13 /sources/glibc/src/glibc-2.37/build/libc_pic.a(strchr.os)
 .comment       0x000000000000050c       0x13 /sources/glibc/src/glibc-2.37/build/libc_pic.a(strcmp.os)
 .comment       0x000000000000051f       0x13 /sources/glibc/src/glibc-2.37/build/libc_pic.a(strcspn.os)
 .comment       0x0000000000000532       0x13 /sources/glibc/src/glibc-2.37/build/libc_pic.a(strdup.os)
 .comment       0x0000000000000545       0x13 /sources/glibc/src/glibc-2.37/build/libc_pic.a(strerrorname_np.os)
 .comment       0x0000000000000558       0x13 /sources/glibc/src/glibc-2.37/build/libc_pic.a(strlen.os)
 .comment       0x000000000000056b       0x13 /sources/glibc/src/glibc-2.37/build/libc_pic.a(strncmp.os)
 .comment       0x000000000000057e       0x13 /sources/glibc/src/glibc-2.37/build/libc_pic.a(strnlen.os)
 .comment       0x0000000000000591       0x13 /sources/glibc/src/glibc-2.37/build/libc_pic.a(strcspn-sse4.os)
 .comment       0x00000000000005a4       0x13 /sources/glibc/src/glibc-2.37/build/libc_pic.a(varshift.os)
 .comment       0x00000000000005b7       0x13 /sources/glibc/src/glibc-2.37/build/libc_pic.a(strcspn-generic.os)
 .comment       0x00000000000005ca       0x13 /sources/glibc/src/glibc-2.37/build/libc_pic.a(cacheinfo.os)
 .comment       0x00000000000005dd       0x13 /sources/glibc/src/glibc-2.37/build/libc_pic.a(closedir.os)
 .comment       0x00000000000005f0       0x13 /sources/glibc/src/glibc-2.37/build/libc_pic.a(rewinddir.os)
 .comment       0x0000000000000603       0x13 /sources/glibc/src/glibc-2.37/build/libc_pic.a(readdir64.os)
 .comment       0x0000000000000616       0x13 /sources/glibc/src/glibc-2.37/build/libc_pic.a(fdopendir.os)
 .comment       0x0000000000000629       0x13 /sources/glibc/src/glibc-2.37/build/libc_pic.a(_exit.os)
 .comment       0x000000000000063c       0x13 /sources/glibc/src/glibc-2.37/build/libc_pic.a(environ.os)
 .comment       0x000000000000064f       0x13 /sources/glibc/src/glibc-2.37/build/libc_pic.a(stat64.os)
 .comment       0x0000000000000662       0x13 /sources/glibc/src/glibc-2.37/build/libc_pic.a(fstat64.os)
 .comment       0x0000000000000675       0x13 /sources/glibc/src/glibc-2.37/build/libc_pic.a(lstat64.os)
 .comment       0x0000000000000688       0x13 /sources/glibc/src/glibc-2.37/build/libc_pic.a(fstatat64.os)
 .comment       0x000000000000069b       0x13 /sources/glibc/src/glibc-2.37/build/libc_pic.a(openat64.os)
 .comment       0x00000000000006ae       0x13 /sources/glibc/src/glibc-2.37/build/libc_pic.a(lseek64.os)
 .comment       0x00000000000006c1       0x13 /sources/glibc/src/glibc-2.37/build/libc_pic.a(access.os)
 .comment       0x00000000000006d4       0x13 /sources/glibc/src/glibc-2.37/build/libc_pic.a(close_nocancel.os)
 .comment       0x00000000000006e7       0x13 /sources/glibc/src/glibc-2.37/build/libc_pic.a(fcntl_nocancel.os)
 .comment       0x00000000000006fa       0x13 /sources/glibc/src/glibc-2.37/build/libc_pic.a(open64_nocancel.os)
 .comment       0x000000000000070d       0x13 /sources/glibc/src/glibc-2.37/build/libc_pic.a(read_nocancel.os)
 .comment       0x0000000000000720       0x13 /sources/glibc/src/glibc-2.37/build/libc_pic.a(pread64_nocancel.os)
 .comment       0x0000000000000733       0x13 /sources/glibc/src/glibc-2.37/build/libc_pic.a(write_nocancel.os)
 .comment       0x0000000000000746       0x13 /sources/glibc/src/glibc-2.37/build/libc_pic.a(mmap64.os)
 .comment       0x0000000000000759       0x13 /sources/glibc/src/glibc-2.37/build/libc_pic.a(single_threaded.os)
 .comment       0x000000000000076c       0x13 /sources/glibc/src/glibc-2.37/build/libc_pic.a(profil.os)
 .comment       0x000000000000077f       0x13 /sources/glibc/src/glibc-2.37/build/libc_pic.a(prof-freq.os)
 .comment       0x0000000000000792       0x13 /sources/glibc/src/glibc-2.37/build/libc_pic.a(dl-addr-obj.os)
 .comment       0x00000000000007a5       0x13 /sources/glibc/src/glibc-2.37/build/libc_pic.a(sigaction.os)
 .comment       0x00000000000007b8       0x13 /sources/glibc/src/glibc-2.37/build/libc_pic.a(libc_sigaction.os)
 .comment       0x00000000000007cb       0x13 /sources/glibc/src/glibc-2.37/build/libc_pic.a(errname.os)
 .comment       0x00000000000007de       0x13 /sources/glibc/src/glibc-2.37/build/libc_pic.a(strchrnul.os)
 .comment       0x00000000000007f1       0x13 /sources/glibc/src/glibc-2.37/build/libc_pic.a(setitimer.os)
 .comment       0x0000000000000804       0x13 /sources/glibc/src/glibc-2.37/build/libc_pic.a(getdents64.os)

.note.GNU-stack
                0x0000000000000000        0x0
 .note.GNU-stack
                0x0000000000000000        0x0 /sources/glibc/src/glibc-2.37/build/elf/librtld.mapT.o
 .note.GNU-stack
                0x0000000000000000        0x0 /sources/glibc/src/glibc-2.37/build/elf/dl-allobjs.os
 .note.GNU-stack
                0x0000000000000000        0x0 /sources/glibc/src/glibc-2.37/build/libc_pic.a(check_fds.os)
 .note.GNU-stack
                0x0000000000000000        0x0 /sources/glibc/src/glibc-2.37/build/libc_pic.a(errno.os)
 .note.GNU-stack
                0x0000000000000000        0x0 /sources/glibc/src/glibc-2.37/build/libc_pic.a(setjmp.os)
 .note.GNU-stack
                0x0000000000000000        0x0 /sources/glibc/src/glibc-2.37/build/libc_pic.a(__longjmp.os)
 .note.GNU-stack
                0x0000000000000000        0x0 /sources/glibc/src/glibc-2.37/build/libc_pic.a(lowlevellock.os)
 .note.GNU-stack
                0x0000000000000000        0x0 /sources/glibc/src/glibc-2.37/build/libc_pic.a(scratch_buffer_set_array_size.os)
 .note.GNU-stack
                0x0000000000000000        0x0 /sources/glibc/src/glibc-2.37/build/libc_pic.a(memchr.os)
 .note.GNU-stack
                0x0000000000000000        0x0 /sources/glibc/src/glibc-2.37/build/libc_pic.a(memcmp.os)
 .note.GNU-stack
                0x0000000000000000        0x0 /sources/glibc/src/glibc-2.37/build/libc_pic.a(memcpy.os)
 .note.GNU-stack
                0x0000000000000000        0x0 /sources/glibc/src/glibc-2.37/build/libc_pic.a(memmove.os)
 .note.GNU-stack
                0x0000000000000000        0x0 /sources/glibc/src/glibc-2.37/build/libc_pic.a(mempcpy.os)
 .note.GNU-stack
                0x0000000000000000        0x0 /sources/glibc/src/glibc-2.37/build/libc_pic.a(memset.os)
 .note.GNU-stack
                0x0000000000000000        0x0 /sources/glibc/src/glibc-2.37/build/libc_pic.a(rawmemchr.os)
 .note.GNU-stack
                0x0000000000000000        0x0 /sources/glibc/src/glibc-2.37/build/libc_pic.a(stpcpy.os)
 .note.GNU-stack
                0x0000000000000000        0x0 /sources/glibc/src/glibc-2.37/build/libc_pic.a(strchr.os)
 .note.GNU-stack
                0x0000000000000000        0x0 /sources/glibc/src/glibc-2.37/build/libc_pic.a(strcmp.os)
 .note.GNU-stack
                0x0000000000000000        0x0 /sources/glibc/src/glibc-2.37/build/libc_pic.a(strcspn.os)
 .note.GNU-stack
                0x0000000000000000        0x0 /sources/glibc/src/glibc-2.37/build/libc_pic.a(strdup.os)
 .note.GNU-stack
                0x0000000000000000        0x0 /sources/glibc/src/glibc-2.37/build/libc_pic.a(strerrorname_np.os)
 .note.GNU-stack
                0x0000000000000000        0x0 /sources/glibc/src/glibc-2.37/build/libc_pic.a(strlen.os)
 .note.GNU-stack
                0x0000000000000000        0x0 /sources/glibc/src/glibc-2.37/build/libc_pic.a(strncmp.os)
 .note.GNU-stack
                0x0000000000000000        0x0 /sources/glibc/src/glibc-2.37/build/libc_pic.a(strnlen.os)
 .note.GNU-stack
                0x0000000000000000        0x0 /sources/glibc/src/glibc-2.37/build/libc_pic.a(memchr-avx2.os)
 .note.GNU-stack
                0x0000000000000000        0x0 /sources/glibc/src/glibc-2.37/build/libc_pic.a(memchr-avx2-rtm.os)
 .note.GNU-stack
                0x0000000000000000        0x0 /sources/glibc/src/glibc-2.37/build/libc_pic.a(memchr-evex.os)
 .note.GNU-stack
                0x0000000000000000        0x0 /sources/glibc/src/glibc-2.37/build/libc_pic.a(memchr-evex-rtm.os)
 .note.GNU-stack
                0x0000000000000000        0x0 /sources/glibc/src/glibc-2.37/build/libc_pic.a(memchr-sse2.os)
 .note.GNU-stack
                0x0000000000000000        0x0 /sources/glibc/src/glibc-2.37/build/libc_pic.a(memcmp-avx2-movbe.os)
 .note.GNU-stack
                0x0000000000000000        0x0 /sources/glibc/src/glibc-2.37/build/libc_pic.a(memcmp-avx2-movbe-rtm.os)
 .note.GNU-stack
                0x0000000000000000        0x0 /sources/glibc/src/glibc-2.37/build/libc_pic.a(memcmp-evex-movbe.os)
 .note.GNU-stack
                0x0000000000000000        0x0 /sources/glibc/src/glibc-2.37/build/libc_pic.a(memcmp-sse2.os)
 .note.GNU-stack
                0x0000000000000000        0x0 /sources/glibc/src/glibc-2.37/build/libc_pic.a(memmove-avx-unaligned-erms.os)
 .note.GNU-stack
                0x0000000000000000        0x0 /sources/glibc/src/glibc-2.37/build/libc_pic.a(memmove-avx-unaligned-erms-rtm.os)
 .note.GNU-stack
                0x0000000000000000        0x0 /sources/glibc/src/glibc-2.37/build/libc_pic.a(memmove-avx512-no-vzeroupper.os)
 .note.GNU-stack
                0x0000000000000000        0x0 /sources/glibc/src/glibc-2.37/build/libc_pic.a(memmove-avx512-unaligned-erms.os)
 .note.GNU-stack
                0x0000000000000000        0x0 /sources/glibc/src/glibc-2.37/build/libc_pic.a(memmove-erms.os)
 .note.GNU-stack
                0x0000000000000000        0x0 /sources/glibc/src/glibc-2.37/build/libc_pic.a(memmove-evex-unaligned-erms.os)
 .note.GNU-stack
                0x0000000000000000        0x0 /sources/glibc/src/glibc-2.37/build/libc_pic.a(memmove-sse2-unaligned-erms.os)
 .note.GNU-stack
                0x0000000000000000        0x0 /sources/glibc/src/glibc-2.37/build/libc_pic.a(memmove-ssse3.os)
 .note.GNU-stack
                0x0000000000000000        0x0 /sources/glibc/src/glibc-2.37/build/libc_pic.a(memset-avx2-unaligned-erms.os)
 .note.GNU-stack
                0x0000000000000000        0x0 /sources/glibc/src/glibc-2.37/build/libc_pic.a(memset-avx2-unaligned-erms-rtm.os)
 .note.GNU-stack
                0x0000000000000000        0x0 /sources/glibc/src/glibc-2.37/build/libc_pic.a(memset-avx512-no-vzeroupper.os)
 .note.GNU-stack
                0x0000000000000000        0x0 /sources/glibc/src/glibc-2.37/build/libc_pic.a(memset-avx512-unaligned-erms.os)
 .note.GNU-stack
                0x0000000000000000        0x0 /sources/glibc/src/glibc-2.37/build/libc_pic.a(memset-erms.os)
 .note.GNU-stack
                0x0000000000000000        0x0 /sources/glibc/src/glibc-2.37/build/libc_pic.a(memset-evex-unaligned-erms.os)
 .note.GNU-stack
                0x0000000000000000        0x0 /sources/glibc/src/glibc-2.37/build/libc_pic.a(memset-sse2-unaligned-erms.os)
 .note.GNU-stack
                0x0000000000000000        0x0 /sources/glibc/src/glibc-2.37/build/libc_pic.a(rawmemchr-avx2.os)
 .note.GNU-stack
                0x0000000000000000        0x0 /sources/glibc/src/glibc-2.37/build/libc_pic.a(rawmemchr-avx2-rtm.os)
 .note.GNU-stack
                0x0000000000000000        0x0 /sources/glibc/src/glibc-2.37/build/libc_pic.a(rawmemchr-evex.os)
 .note.GNU-stack
                0x0000000000000000        0x0 /sources/glibc/src/glibc-2.37/build/libc_pic.a(rawmemchr-evex-rtm.os)
 .note.GNU-stack
                0x0000000000000000        0x0 /sources/glibc/src/glibc-2.37/build/libc_pic.a(rawmemchr-sse2.os)
 .note.GNU-stack
                0x0000000000000000        0x0 /sources/glibc/src/glibc-2.37/build/libc_pic.a(stpcpy-avx2.os)
 .note.GNU-stack
                0x0000000000000000        0x0 /sources/glibc/src/glibc-2.37/build/libc_pic.a(stpcpy-avx2-rtm.os)
 .note.GNU-stack
                0x0000000000000000        0x0 /sources/glibc/src/glibc-2.37/build/libc_pic.a(stpcpy-evex.os)
 .note.GNU-stack
                0x0000000000000000        0x0 /sources/glibc/src/glibc-2.37/build/libc_pic.a(stpcpy-sse2.os)
 .note.GNU-stack
                0x0000000000000000        0x0 /sources/glibc/src/glibc-2.37/build/libc_pic.a(stpcpy-sse2-unaligned.os)
 .note.GNU-stack
                0x0000000000000000        0x0 /sources/glibc/src/glibc-2.37/build/libc_pic.a(strchr-avx2.os)
 .note.GNU-stack
                0x0000000000000000        0x0 /sources/glibc/src/glibc-2.37/build/libc_pic.a(strchr-avx2-rtm.os)
 .note.GNU-stack
                0x0000000000000000        0x0 /sources/glibc/src/glibc-2.37/build/libc_pic.a(strchr-evex.os)
 .note.GNU-stack
                0x0000000000000000        0x0 /sources/glibc/src/glibc-2.37/build/libc_pic.a(strchr-sse2.os)
 .note.GNU-stack
                0x0000000000000000        0x0 /sources/glibc/src/glibc-2.37/build/libc_pic.a(strchr-sse2-no-bsf.os)
 .note.GNU-stack
                0x0000000000000000        0x0 /sources/glibc/src/glibc-2.37/build/libc_pic.a(strcmp-avx2.os)
 .note.GNU-stack
                0x0000000000000000        0x0 /sources/glibc/src/glibc-2.37/build/libc_pic.a(strcmp-avx2-rtm.os)
 .note.GNU-stack
                0x0000000000000000        0x0 /sources/glibc/src/glibc-2.37/build/libc_pic.a(strcmp-evex.os)
 .note.GNU-stack
                0x0000000000000000        0x0 /sources/glibc/src/glibc-2.37/build/libc_pic.a(strcmp-sse2.os)
 .note.GNU-stack
                0x0000000000000000        0x0 /sources/glibc/src/glibc-2.37/build/libc_pic.a(strcmp-sse2-unaligned.os)
 .note.GNU-stack
                0x0000000000000000        0x0 /sources/glibc/src/glibc-2.37/build/libc_pic.a(strcmp-sse4_2.os)
 .note.GNU-stack
                0x0000000000000000        0x0 /sources/glibc/src/glibc-2.37/build/libc_pic.a(strcspn-sse4.os)
 .note.GNU-stack
                0x0000000000000000        0x0 /sources/glibc/src/glibc-2.37/build/libc_pic.a(strlen-avx2.os)
 .note.GNU-stack
                0x0000000000000000        0x0 /sources/glibc/src/glibc-2.37/build/libc_pic.a(strlen-avx2-rtm.os)
 .note.GNU-stack
                0x0000000000000000        0x0 /sources/glibc/src/glibc-2.37/build/libc_pic.a(strlen-evex.os)
 .note.GNU-stack
                0x0000000000000000        0x0 /sources/glibc/src/glibc-2.37/build/libc_pic.a(strlen-sse2.os)
 .note.GNU-stack
                0x0000000000000000        0x0 /sources/glibc/src/glibc-2.37/build/libc_pic.a(strncmp-avx2.os)
 .note.GNU-stack
                0x0000000000000000        0x0 /sources/glibc/src/glibc-2.37/build/libc_pic.a(strncmp-avx2-rtm.os)
 .note.GNU-stack
                0x0000000000000000        0x0 /sources/glibc/src/glibc-2.37/build/libc_pic.a(strncmp-evex.os)
 .note.GNU-stack
                0x0000000000000000        0x0 /sources/glibc/src/glibc-2.37/build/libc_pic.a(strncmp-sse2.os)
 .note.GNU-stack
                0x0000000000000000        0x0 /sources/glibc/src/glibc-2.37/build/libc_pic.a(strncmp-sse4_2.os)
 .note.GNU-stack
                0x0000000000000000        0x0 /sources/glibc/src/glibc-2.37/build/libc_pic.a(strnlen-avx2.os)
 .note.GNU-stack
                0x0000000000000000        0x0 /sources/glibc/src/glibc-2.37/build/libc_pic.a(strnlen-avx2-rtm.os)
 .note.GNU-stack
                0x0000000000000000        0x0 /sources/glibc/src/glibc-2.37/build/libc_pic.a(strnlen-evex.os)
 .note.GNU-stack
                0x0000000000000000        0x0 /sources/glibc/src/glibc-2.37/build/libc_pic.a(strnlen-sse2.os)
 .note.GNU-stack
                0x0000000000000000        0x0 /sources/glibc/src/glibc-2.37/build/libc_pic.a(varshift.os)
 .note.GNU-stack
                0x0000000000000000        0x0 /sources/glibc/src/glibc-2.37/build/libc_pic.a(strcspn-generic.os)
 .note.GNU-stack
                0x0000000000000000        0x0 /sources/glibc/src/glibc-2.37/build/libc_pic.a(cacheinfo.os)
 .note.GNU-stack
                0x0000000000000000        0x0 /sources/glibc/src/glibc-2.37/build/libc_pic.a(closedir.os)
 .note.GNU-stack
                0x0000000000000000        0x0 /sources/glibc/src/glibc-2.37/build/libc_pic.a(rewinddir.os)
 .note.GNU-stack
                0x0000000000000000        0x0 /sources/glibc/src/glibc-2.37/build/libc_pic.a(readdir64.os)
 .note.GNU-stack
                0x0000000000000000        0x0 /sources/glibc/src/glibc-2.37/build/libc_pic.a(fdopendir.os)
 .note.GNU-stack
                0x0000000000000000        0x0 /sources/glibc/src/glibc-2.37/build/libc_pic.a(uname.os)
 .note.GNU-stack
                0x0000000000000000        0x0 /sources/glibc/src/glibc-2.37/build/libc_pic.a(_exit.os)
 .note.GNU-stack
                0x0000000000000000        0x0 /sources/glibc/src/glibc-2.37/build/libc_pic.a(getpid.os)
 .note.GNU-stack
                0x0000000000000000        0x0 /sources/glibc/src/glibc-2.37/build/libc_pic.a(environ.os)
 .note.GNU-stack
                0x0000000000000000        0x0 /sources/glibc/src/glibc-2.37/build/libc_pic.a(stat64.os)
 .note.GNU-stack
                0x0000000000000000        0x0 /sources/glibc/src/glibc-2.37/build/libc_pic.a(fstat64.os)
 .note.GNU-stack
                0x0000000000000000        0x0 /sources/glibc/src/glibc-2.37/build/libc_pic.a(lstat64.os)
 .note.GNU-stack
                0x0000000000000000        0x0 /sources/glibc/src/glibc-2.37/build/libc_pic.a(fstatat64.os)
 .note.GNU-stack
                0x0000000000000000        0x0 /sources/glibc/src/glibc-2.37/build/libc_pic.a(openat64.os)
 .note.GNU-stack
                0x0000000000000000        0x0 /sources/glibc/src/glibc-2.37/build/libc_pic.a(lseek64.os)
 .note.GNU-stack
                0x0000000000000000        0x0 /sources/glibc/src/glibc-2.37/build/libc_pic.a(access.os)
 .note.GNU-stack
                0x0000000000000000        0x0 /sources/glibc/src/glibc-2.37/build/libc_pic.a(close_nocancel.os)
 .note.GNU-stack
                0x0000000000000000        0x0 /sources/glibc/src/glibc-2.37/build/libc_pic.a(fcntl_nocancel.os)
 .note.GNU-stack
                0x0000000000000000        0x0 /sources/glibc/src/glibc-2.37/build/libc_pic.a(open64_nocancel.os)
 .note.GNU-stack
                0x0000000000000000        0x0 /sources/glibc/src/glibc-2.37/build/libc_pic.a(read_nocancel.os)
 .note.GNU-stack
                0x0000000000000000        0x0 /sources/glibc/src/glibc-2.37/build/libc_pic.a(pread64_nocancel.os)
 .note.GNU-stack
                0x0000000000000000        0x0 /sources/glibc/src/glibc-2.37/build/libc_pic.a(write_nocancel.os)
 .note.GNU-stack
                0x0000000000000000        0x0 /sources/glibc/src/glibc-2.37/build/libc_pic.a(mmap64.os)
 .note.GNU-stack
                0x0000000000000000        0x0 /sources/glibc/src/glibc-2.37/build/libc_pic.a(munmap.os)
 .note.GNU-stack
                0x0000000000000000        0x0 /sources/glibc/src/glibc-2.37/build/libc_pic.a(mprotect.os)
 .note.GNU-stack
                0x0000000000000000        0x0 /sources/glibc/src/glibc-2.37/build/libc_pic.a(single_threaded.os)
 .note.GNU-stack
                0x0000000000000000        0x0 /sources/glibc/src/glibc-2.37/build/libc_pic.a(profil.os)
 .note.GNU-stack
                0x0000000000000000        0x0 /sources/glibc/src/glibc-2.37/build/libc_pic.a(prof-freq.os)
 .note.GNU-stack
                0x0000000000000000        0x0 /sources/glibc/src/glibc-2.37/build/libc_pic.a(dl-addr-obj.os)
 .note.GNU-stack
                0x0000000000000000        0x0 /sources/glibc/src/glibc-2.37/build/libc_pic.a(sigaction.os)
 .note.GNU-stack
                0x0000000000000000        0x0 /sources/glibc/src/glibc-2.37/build/libc_pic.a(libc_sigaction.os)
 .note.GNU-stack
                0x0000000000000000        0x0 /sources/glibc/src/glibc-2.37/build/libc_pic.a(errname.os)
 .note.GNU-stack
                0x0000000000000000        0x0 /sources/glibc/src/glibc-2.37/build/libc_pic.a(strchrnul.os)
 .note.GNU-stack
                0x0000000000000000        0x0 /sources/glibc/src/glibc-2.37/build/libc_pic.a(strchrnul-avx2.os)
 .note.GNU-stack
                0x0000000000000000        0x0 /sources/glibc/src/glibc-2.37/build/libc_pic.a(strchrnul-avx2-rtm.os)
 .note.GNU-stack
                0x0000000000000000        0x0 /sources/glibc/src/glibc-2.37/build/libc_pic.a(strchrnul-evex.os)
 .note.GNU-stack
                0x0000000000000000        0x0 /sources/glibc/src/glibc-2.37/build/libc_pic.a(strchrnul-sse2.os)
 .note.GNU-stack
                0x0000000000000000        0x0 /sources/glibc/src/glibc-2.37/build/libc_pic.a(setitimer.os)
 .note.GNU-stack
                0x0000000000000000        0x0 /sources/glibc/src/glibc-2.37/build/libc_pic.a(getdents64.os)

.gnu.build.attributes
 *(.gnu.build.attributes)

.debug
 *(.debug)

.line
 *(.line)

.debug_srcinfo
 *(.debug_srcinfo)

.debug_sfnames
 *(.debug_sfnames)

.debug_aranges  0x0000000000000000     0x21a0
 *(.debug_aranges)
 .debug_aranges
                0x0000000000000000      0xb00 /sources/glibc/src/glibc-2.37/build/elf/dl-allobjs.os
 .debug_aranges
                0x0000000000000b00       0x30 /sources/glibc/src/glibc-2.37/build/libc_pic.a(check_fds.os)
 .debug_aranges
                0x0000000000000b30       0x20 /sources/glibc/src/glibc-2.37/build/libc_pic.a(errno.os)
 .debug_aranges
                0x0000000000000b50       0x30 /sources/glibc/src/glibc-2.37/build/libc_pic.a(setjmp.os)
 .debug_aranges
                0x0000000000000b80       0x30 /sources/glibc/src/glibc-2.37/build/libc_pic.a(__longjmp.os)
 .debug_aranges
                0x0000000000000bb0       0x30 /sources/glibc/src/glibc-2.37/build/libc_pic.a(lowlevellock.os)
 .debug_aranges
                0x0000000000000be0       0x30 /sources/glibc/src/glibc-2.37/build/libc_pic.a(scratch_buffer_set_array_size.os)
 .debug_aranges
                0x0000000000000c10       0x30 /sources/glibc/src/glibc-2.37/build/libc_pic.a(memchr.os)
 .debug_aranges
                0x0000000000000c40       0x30 /sources/glibc/src/glibc-2.37/build/libc_pic.a(memcmp.os)
 .debug_aranges
                0x0000000000000c70       0x30 /sources/glibc/src/glibc-2.37/build/libc_pic.a(memcpy.os)
 .debug_aranges
                0x0000000000000ca0       0x30 /sources/glibc/src/glibc-2.37/build/libc_pic.a(memmove.os)
 .debug_aranges
                0x0000000000000cd0       0x30 /sources/glibc/src/glibc-2.37/build/libc_pic.a(mempcpy.os)
 .debug_aranges
                0x0000000000000d00       0x30 /sources/glibc/src/glibc-2.37/build/libc_pic.a(memset.os)
 .debug_aranges
                0x0000000000000d30       0x30 /sources/glibc/src/glibc-2.37/build/libc_pic.a(rawmemchr.os)
 .debug_aranges
                0x0000000000000d60       0x30 /sources/glibc/src/glibc-2.37/build/libc_pic.a(stpcpy.os)
 .debug_aranges
                0x0000000000000d90       0x30 /sources/glibc/src/glibc-2.37/build/libc_pic.a(strchr.os)
 .debug_aranges
                0x0000000000000dc0       0x30 /sources/glibc/src/glibc-2.37/build/libc_pic.a(strcmp.os)
 .debug_aranges
                0x0000000000000df0       0x30 /sources/glibc/src/glibc-2.37/build/libc_pic.a(strcspn.os)
 .debug_aranges
                0x0000000000000e20       0x30 /sources/glibc/src/glibc-2.37/build/libc_pic.a(strdup.os)
 .debug_aranges
                0x0000000000000e50       0x30 /sources/glibc/src/glibc-2.37/build/libc_pic.a(strerrorname_np.os)
 .debug_aranges
                0x0000000000000e80       0x30 /sources/glibc/src/glibc-2.37/build/libc_pic.a(strlen.os)
 .debug_aranges
                0x0000000000000eb0       0x30 /sources/glibc/src/glibc-2.37/build/libc_pic.a(strncmp.os)
 .debug_aranges
                0x0000000000000ee0       0x30 /sources/glibc/src/glibc-2.37/build/libc_pic.a(strnlen.os)
 .debug_aranges
                0x0000000000000f10       0x30 /sources/glibc/src/glibc-2.37/build/libc_pic.a(memchr-avx2.os)
 .debug_aranges
                0x0000000000000f40       0x30 /sources/glibc/src/glibc-2.37/build/libc_pic.a(memchr-avx2-rtm.os)
 .debug_aranges
                0x0000000000000f70       0x30 /sources/glibc/src/glibc-2.37/build/libc_pic.a(memchr-evex.os)
 .debug_aranges
                0x0000000000000fa0       0x30 /sources/glibc/src/glibc-2.37/build/libc_pic.a(memchr-evex-rtm.os)
 .debug_aranges
                0x0000000000000fd0       0x30 /sources/glibc/src/glibc-2.37/build/libc_pic.a(memchr-sse2.os)
 .debug_aranges
                0x0000000000001000       0x30 /sources/glibc/src/glibc-2.37/build/libc_pic.a(memcmp-avx2-movbe.os)
 .debug_aranges
                0x0000000000001030       0x30 /sources/glibc/src/glibc-2.37/build/libc_pic.a(memcmp-avx2-movbe-rtm.os)
 .debug_aranges
                0x0000000000001060       0x30 /sources/glibc/src/glibc-2.37/build/libc_pic.a(memcmp-evex-movbe.os)
 .debug_aranges
                0x0000000000001090       0x30 /sources/glibc/src/glibc-2.37/build/libc_pic.a(memcmp-sse2.os)
 .debug_aranges
                0x00000000000010c0       0x30 /sources/glibc/src/glibc-2.37/build/libc_pic.a(memmove-avx-unaligned-erms.os)
 .debug_aranges
                0x00000000000010f0       0x30 /sources/glibc/src/glibc-2.37/build/libc_pic.a(memmove-avx-unaligned-erms-rtm.os)
 .debug_aranges
                0x0000000000001120       0x30 /sources/glibc/src/glibc-2.37/build/libc_pic.a(memmove-avx512-no-vzeroupper.os)
 .debug_aranges
                0x0000000000001150       0x30 /sources/glibc/src/glibc-2.37/build/libc_pic.a(memmove-avx512-unaligned-erms.os)
 .debug_aranges
                0x0000000000001180       0x30 /sources/glibc/src/glibc-2.37/build/libc_pic.a(memmove-erms.os)
 .debug_aranges
                0x00000000000011b0       0x30 /sources/glibc/src/glibc-2.37/build/libc_pic.a(memmove-evex-unaligned-erms.os)
 .debug_aranges
                0x00000000000011e0       0x30 /sources/glibc/src/glibc-2.37/build/libc_pic.a(memmove-sse2-unaligned-erms.os)
 .debug_aranges
                0x0000000000001210       0x30 /sources/glibc/src/glibc-2.37/build/libc_pic.a(memmove-ssse3.os)
 .debug_aranges
                0x0000000000001240       0x30 /sources/glibc/src/glibc-2.37/build/libc_pic.a(memset-avx2-unaligned-erms.os)
 .debug_aranges
                0x0000000000001270       0x30 /sources/glibc/src/glibc-2.37/build/libc_pic.a(memset-avx2-unaligned-erms-rtm.os)
 .debug_aranges
                0x00000000000012a0       0x30 /sources/glibc/src/glibc-2.37/build/libc_pic.a(memset-avx512-no-vzeroupper.os)
 .debug_aranges
                0x00000000000012d0       0x30 /sources/glibc/src/glibc-2.37/build/libc_pic.a(memset-avx512-unaligned-erms.os)
 .debug_aranges
                0x0000000000001300       0x30 /sources/glibc/src/glibc-2.37/build/libc_pic.a(memset-erms.os)
 .debug_aranges
                0x0000000000001330       0x30 /sources/glibc/src/glibc-2.37/build/libc_pic.a(memset-evex-unaligned-erms.os)
 .debug_aranges
                0x0000000000001360       0x30 /sources/glibc/src/glibc-2.37/build/libc_pic.a(memset-sse2-unaligned-erms.os)
 .debug_aranges
                0x0000000000001390       0x30 /sources/glibc/src/glibc-2.37/build/libc_pic.a(rawmemchr-avx2.os)
 .debug_aranges
                0x00000000000013c0       0x30 /sources/glibc/src/glibc-2.37/build/libc_pic.a(rawmemchr-avx2-rtm.os)
 .debug_aranges
                0x00000000000013f0       0x30 /sources/glibc/src/glibc-2.37/build/libc_pic.a(rawmemchr-evex.os)
 .debug_aranges
                0x0000000000001420       0x30 /sources/glibc/src/glibc-2.37/build/libc_pic.a(rawmemchr-evex-rtm.os)
 .debug_aranges
                0x0000000000001450       0x30 /sources/glibc/src/glibc-2.37/build/libc_pic.a(rawmemchr-sse2.os)
 .debug_aranges
                0x0000000000001480       0x30 /sources/glibc/src/glibc-2.37/build/libc_pic.a(stpcpy-avx2.os)
 .debug_aranges
                0x00000000000014b0       0x30 /sources/glibc/src/glibc-2.37/build/libc_pic.a(stpcpy-avx2-rtm.os)
 .debug_aranges
                0x00000000000014e0       0x30 /sources/glibc/src/glibc-2.37/build/libc_pic.a(stpcpy-evex.os)
 .debug_aranges
                0x0000000000001510       0x30 /sources/glibc/src/glibc-2.37/build/libc_pic.a(stpcpy-sse2.os)
 .debug_aranges
                0x0000000000001540       0x30 /sources/glibc/src/glibc-2.37/build/libc_pic.a(stpcpy-sse2-unaligned.os)
 .debug_aranges
                0x0000000000001570       0x30 /sources/glibc/src/glibc-2.37/build/libc_pic.a(strchr-avx2.os)
 .debug_aranges
                0x00000000000015a0       0x30 /sources/glibc/src/glibc-2.37/build/libc_pic.a(strchr-avx2-rtm.os)
 .debug_aranges
                0x00000000000015d0       0x30 /sources/glibc/src/glibc-2.37/build/libc_pic.a(strchr-evex.os)
 .debug_aranges
                0x0000000000001600       0x30 /sources/glibc/src/glibc-2.37/build/libc_pic.a(strchr-sse2.os)
 .debug_aranges
                0x0000000000001630       0x30 /sources/glibc/src/glibc-2.37/build/libc_pic.a(strchr-sse2-no-bsf.os)
 .debug_aranges
                0x0000000000001660       0x30 /sources/glibc/src/glibc-2.37/build/libc_pic.a(strcmp-avx2.os)
 .debug_aranges
                0x0000000000001690       0x30 /sources/glibc/src/glibc-2.37/build/libc_pic.a(strcmp-avx2-rtm.os)
 .debug_aranges
                0x00000000000016c0       0x30 /sources/glibc/src/glibc-2.37/build/libc_pic.a(strcmp-evex.os)
 .debug_aranges
                0x00000000000016f0       0x30 /sources/glibc/src/glibc-2.37/build/libc_pic.a(strcmp-sse2.os)
 .debug_aranges
                0x0000000000001720       0x30 /sources/glibc/src/glibc-2.37/build/libc_pic.a(strcmp-sse2-unaligned.os)
 .debug_aranges
                0x0000000000001750       0x30 /sources/glibc/src/glibc-2.37/build/libc_pic.a(strcmp-sse4_2.os)
 .debug_aranges
                0x0000000000001780       0x30 /sources/glibc/src/glibc-2.37/build/libc_pic.a(strcspn-sse4.os)
 .debug_aranges
                0x00000000000017b0       0x30 /sources/glibc/src/glibc-2.37/build/libc_pic.a(strlen-avx2.os)
 .debug_aranges
                0x00000000000017e0       0x30 /sources/glibc/src/glibc-2.37/build/libc_pic.a(strlen-avx2-rtm.os)
 .debug_aranges
                0x0000000000001810       0x30 /sources/glibc/src/glibc-2.37/build/libc_pic.a(strlen-evex.os)
 .debug_aranges
                0x0000000000001840       0x30 /sources/glibc/src/glibc-2.37/build/libc_pic.a(strlen-sse2.os)
 .debug_aranges
                0x0000000000001870       0x30 /sources/glibc/src/glibc-2.37/build/libc_pic.a(strncmp-avx2.os)
 .debug_aranges
                0x00000000000018a0       0x30 /sources/glibc/src/glibc-2.37/build/libc_pic.a(strncmp-avx2-rtm.os)
 .debug_aranges
                0x00000000000018d0       0x30 /sources/glibc/src/glibc-2.37/build/libc_pic.a(strncmp-evex.os)
 .debug_aranges
                0x0000000000001900       0x30 /sources/glibc/src/glibc-2.37/build/libc_pic.a(strncmp-sse2.os)
 .debug_aranges
                0x0000000000001930       0x30 /sources/glibc/src/glibc-2.37/build/libc_pic.a(strncmp-sse4_2.os)
 .debug_aranges
                0x0000000000001960       0x30 /sources/glibc/src/glibc-2.37/build/libc_pic.a(strnlen-avx2.os)
 .debug_aranges
                0x0000000000001990       0x30 /sources/glibc/src/glibc-2.37/build/libc_pic.a(strnlen-avx2-rtm.os)
 .debug_aranges
                0x00000000000019c0       0x30 /sources/glibc/src/glibc-2.37/build/libc_pic.a(strnlen-evex.os)
 .debug_aranges
                0x00000000000019f0       0x30 /sources/glibc/src/glibc-2.37/build/libc_pic.a(strnlen-sse2.os)
 .debug_aranges
                0x0000000000001a20       0x20 /sources/glibc/src/glibc-2.37/build/libc_pic.a(varshift.os)
 .debug_aranges
                0x0000000000001a40       0x30 /sources/glibc/src/glibc-2.37/build/libc_pic.a(strcspn-generic.os)
 .debug_aranges
                0x0000000000001a70       0x30 /sources/glibc/src/glibc-2.37/build/libc_pic.a(cacheinfo.os)
 .debug_aranges
                0x0000000000001aa0       0x30 /sources/glibc/src/glibc-2.37/build/libc_pic.a(closedir.os)
 .debug_aranges
                0x0000000000001ad0       0x30 /sources/glibc/src/glibc-2.37/build/libc_pic.a(rewinddir.os)
 .debug_aranges
                0x0000000000001b00       0x30 /sources/glibc/src/glibc-2.37/build/libc_pic.a(readdir64.os)
 .debug_aranges
                0x0000000000001b30       0x30 /sources/glibc/src/glibc-2.37/build/libc_pic.a(fdopendir.os)
 .debug_aranges
                0x0000000000001b60       0x30 /sources/glibc/src/glibc-2.37/build/libc_pic.a(uname.os)
 .debug_aranges
                0x0000000000001b90       0x30 /sources/glibc/src/glibc-2.37/build/libc_pic.a(_exit.os)
 .debug_aranges
                0x0000000000001bc0       0x30 /sources/glibc/src/glibc-2.37/build/libc_pic.a(getpid.os)
 .debug_aranges
                0x0000000000001bf0       0x20 /sources/glibc/src/glibc-2.37/build/libc_pic.a(environ.os)
 .debug_aranges
                0x0000000000001c10       0x30 /sources/glibc/src/glibc-2.37/build/libc_pic.a(stat64.os)
 .debug_aranges
                0x0000000000001c40       0x30 /sources/glibc/src/glibc-2.37/build/libc_pic.a(fstat64.os)
 .debug_aranges
                0x0000000000001c70       0x30 /sources/glibc/src/glibc-2.37/build/libc_pic.a(lstat64.os)
 .debug_aranges
                0x0000000000001ca0       0x30 /sources/glibc/src/glibc-2.37/build/libc_pic.a(fstatat64.os)
 .debug_aranges
                0x0000000000001cd0       0x30 /sources/glibc/src/glibc-2.37/build/libc_pic.a(openat64.os)
 .debug_aranges
                0x0000000000001d00       0x30 /sources/glibc/src/glibc-2.37/build/libc_pic.a(lseek64.os)
 .debug_aranges
                0x0000000000001d30       0x30 /sources/glibc/src/glibc-2.37/build/libc_pic.a(access.os)
 .debug_aranges
                0x0000000000001d60       0x30 /sources/glibc/src/glibc-2.37/build/libc_pic.a(close_nocancel.os)
 .debug_aranges
                0x0000000000001d90       0x30 /sources/glibc/src/glibc-2.37/build/libc_pic.a(fcntl_nocancel.os)
 .debug_aranges
                0x0000000000001dc0       0x30 /sources/glibc/src/glibc-2.37/build/libc_pic.a(open64_nocancel.os)
 .debug_aranges
                0x0000000000001df0       0x30 /sources/glibc/src/glibc-2.37/build/libc_pic.a(read_nocancel.os)
 .debug_aranges
                0x0000000000001e20       0x30 /sources/glibc/src/glibc-2.37/build/libc_pic.a(pread64_nocancel.os)
 .debug_aranges
                0x0000000000001e50       0x30 /sources/glibc/src/glibc-2.37/build/libc_pic.a(write_nocancel.os)
 .debug_aranges
                0x0000000000001e80       0x30 /sources/glibc/src/glibc-2.37/build/libc_pic.a(mmap64.os)
 .debug_aranges
                0x0000000000001eb0       0x30 /sources/glibc/src/glibc-2.37/build/libc_pic.a(munmap.os)
 .debug_aranges
                0x0000000000001ee0       0x30 /sources/glibc/src/glibc-2.37/build/libc_pic.a(mprotect.os)
 .debug_aranges
                0x0000000000001f10       0x20 /sources/glibc/src/glibc-2.37/build/libc_pic.a(single_threaded.os)
 .debug_aranges
                0x0000000000001f30       0x30 /sources/glibc/src/glibc-2.37/build/libc_pic.a(profil.os)
 .debug_aranges
                0x0000000000001f60       0x30 /sources/glibc/src/glibc-2.37/build/libc_pic.a(prof-freq.os)
 .debug_aranges
                0x0000000000001f90       0x30 /sources/glibc/src/glibc-2.37/build/libc_pic.a(dl-addr-obj.os)
 .debug_aranges
                0x0000000000001fc0       0x30 /sources/glibc/src/glibc-2.37/build/libc_pic.a(sigaction.os)
 .debug_aranges
                0x0000000000001ff0       0x30 /sources/glibc/src/glibc-2.37/build/libc_pic.a(libc_sigaction.os)
 .debug_aranges
                0x0000000000002020       0x30 /sources/glibc/src/glibc-2.37/build/libc_pic.a(errname.os)
 .debug_aranges
                0x0000000000002050       0x30 /sources/glibc/src/glibc-2.37/build/libc_pic.a(strchrnul.os)
 .debug_aranges
                0x0000000000002080       0x30 /sources/glibc/src/glibc-2.37/build/libc_pic.a(strchrnul-avx2.os)
 .debug_aranges
                0x00000000000020b0       0x30 /sources/glibc/src/glibc-2.37/build/libc_pic.a(strchrnul-avx2-rtm.os)
 .debug_aranges
                0x00000000000020e0       0x30 /sources/glibc/src/glibc-2.37/build/libc_pic.a(strchrnul-evex.os)
 .debug_aranges
                0x0000000000002110       0x30 /sources/glibc/src/glibc-2.37/build/libc_pic.a(strchrnul-sse2.os)
 .debug_aranges
                0x0000000000002140       0x30 /sources/glibc/src/glibc-2.37/build/libc_pic.a(setitimer.os)
 .debug_aranges
                0x0000000000002170       0x30 /sources/glibc/src/glibc-2.37/build/libc_pic.a(getdents64.os)

.debug_pubnames
 *(.debug_pubnames)

.debug_info     0x0000000000000000    0xc3218
 *(.debug_info)
 .debug_info    0x0000000000000000    0x8e863 /sources/glibc/src/glibc-2.37/build/elf/dl-allobjs.os
 .debug_info    0x000000000008e863      0x811 /sources/glibc/src/glibc-2.37/build/libc_pic.a(check_fds.os)
 .debug_info    0x000000000008f074      0x413 /sources/glibc/src/glibc-2.37/build/libc_pic.a(errno.os)
 .debug_info    0x000000000008f487       0x48 /sources/glibc/src/glibc-2.37/build/libc_pic.a(setjmp.os)
 .debug_info    0x000000000008f4cf       0x39 /sources/glibc/src/glibc-2.37/build/libc_pic.a(__longjmp.os)
 .debug_info    0x000000000008f508      0x98e /sources/glibc/src/glibc-2.37/build/libc_pic.a(lowlevellock.os)
 .debug_info    0x000000000008fe96      0x308 /sources/glibc/src/glibc-2.37/build/libc_pic.a(scratch_buffer_set_array_size.os)
 .debug_info    0x000000000009019e     0x2348 /sources/glibc/src/glibc-2.37/build/libc_pic.a(memchr.os)
 .debug_info    0x00000000000924e6     0x232a /sources/glibc/src/glibc-2.37/build/libc_pic.a(memcmp.os)
 .debug_info    0x0000000000094810     0x2442 /sources/glibc/src/glibc-2.37/build/libc_pic.a(memcpy.os)
 .debug_info    0x0000000000096c52     0x2438 /sources/glibc/src/glibc-2.37/build/libc_pic.a(memmove.os)
 .debug_info    0x000000000009908a     0x2442 /sources/glibc/src/glibc-2.37/build/libc_pic.a(mempcpy.os)
 .debug_info    0x000000000009b4cc     0x241a /sources/glibc/src/glibc-2.37/build/libc_pic.a(memset.os)
 .debug_info    0x000000000009d8e6     0x232a /sources/glibc/src/glibc-2.37/build/libc_pic.a(rawmemchr.os)
 .debug_info    0x000000000009fc10     0x2339 /sources/glibc/src/glibc-2.37/build/libc_pic.a(stpcpy.os)
 .debug_info    0x00000000000a1f49     0x232a /sources/glibc/src/glibc-2.37/build/libc_pic.a(strchr.os)
 .debug_info    0x00000000000a4273     0x2349 /sources/glibc/src/glibc-2.37/build/libc_pic.a(strcmp.os)
 .debug_info    0x00000000000a65bc     0x220d /sources/glibc/src/glibc-2.37/build/libc_pic.a(strcspn.os)
 .debug_info    0x00000000000a87c9      0x1a6 /sources/glibc/src/glibc-2.37/build/libc_pic.a(strdup.os)
 .debug_info    0x00000000000a896f       0xd7 /sources/glibc/src/glibc-2.37/build/libc_pic.a(strerrorname_np.os)
 .debug_info    0x00000000000a8a46     0x22f8 /sources/glibc/src/glibc-2.37/build/libc_pic.a(strlen.os)
 .debug_info    0x00000000000aad3e     0x2348 /sources/glibc/src/glibc-2.37/build/libc_pic.a(strncmp.os)
 .debug_info    0x00000000000ad086     0x2311 /sources/glibc/src/glibc-2.37/build/libc_pic.a(strnlen.os)
 .debug_info    0x00000000000af397       0x3b /sources/glibc/src/glibc-2.37/build/libc_pic.a(memchr-avx2.os)
 .debug_info    0x00000000000af3d2       0x3b /sources/glibc/src/glibc-2.37/build/libc_pic.a(memchr-avx2-rtm.os)
 .debug_info    0x00000000000af40d       0x3b /sources/glibc/src/glibc-2.37/build/libc_pic.a(memchr-evex.os)
 .debug_info    0x00000000000af448       0x3b /sources/glibc/src/glibc-2.37/build/libc_pic.a(memchr-evex-rtm.os)
 .debug_info    0x00000000000af483       0x3b /sources/glibc/src/glibc-2.37/build/libc_pic.a(memchr-sse2.os)
 .debug_info    0x00000000000af4be       0x3b /sources/glibc/src/glibc-2.37/build/libc_pic.a(memcmp-avx2-movbe.os)
 .debug_info    0x00000000000af4f9       0x3b /sources/glibc/src/glibc-2.37/build/libc_pic.a(memcmp-avx2-movbe-rtm.os)
 .debug_info    0x00000000000af534       0x3b /sources/glibc/src/glibc-2.37/build/libc_pic.a(memcmp-evex-movbe.os)
 .debug_info    0x00000000000af56f       0x3b /sources/glibc/src/glibc-2.37/build/libc_pic.a(memcmp-sse2.os)
 .debug_info    0x00000000000af5aa       0xed /sources/glibc/src/glibc-2.37/build/libc_pic.a(memmove-avx-unaligned-erms.os)
 .debug_info    0x00000000000af697       0xed /sources/glibc/src/glibc-2.37/build/libc_pic.a(memmove-avx-unaligned-erms-rtm.os)
 .debug_info    0x00000000000af784       0x8d /sources/glibc/src/glibc-2.37/build/libc_pic.a(memmove-avx512-no-vzeroupper.os)
 .debug_info    0x00000000000af811       0xed /sources/glibc/src/glibc-2.37/build/libc_pic.a(memmove-avx512-unaligned-erms.os)
 .debug_info    0x00000000000af8fe       0x8a /sources/glibc/src/glibc-2.37/build/libc_pic.a(memmove-erms.os)
 .debug_info    0x00000000000af988       0xed /sources/glibc/src/glibc-2.37/build/libc_pic.a(memmove-evex-unaligned-erms.os)
 .debug_info    0x00000000000afa75       0xed /sources/glibc/src/glibc-2.37/build/libc_pic.a(memmove-sse2-unaligned-erms.os)
 .debug_info    0x00000000000afb62       0x8d /sources/glibc/src/glibc-2.37/build/libc_pic.a(memmove-ssse3.os)
 .debug_info    0x00000000000afbef       0x8c /sources/glibc/src/glibc-2.37/build/libc_pic.a(memset-avx2-unaligned-erms.os)
 .debug_info    0x00000000000afc7b       0x8c /sources/glibc/src/glibc-2.37/build/libc_pic.a(memset-avx2-unaligned-erms-rtm.os)
 .debug_info    0x00000000000afd07       0x4a /sources/glibc/src/glibc-2.37/build/libc_pic.a(memset-avx512-no-vzeroupper.os)
 .debug_info    0x00000000000afd51       0x8c /sources/glibc/src/glibc-2.37/build/libc_pic.a(memset-avx512-unaligned-erms.os)
 .debug_info    0x00000000000afddd       0x48 /sources/glibc/src/glibc-2.37/build/libc_pic.a(memset-erms.os)
 .debug_info    0x00000000000afe25       0x8c /sources/glibc/src/glibc-2.37/build/libc_pic.a(memset-evex-unaligned-erms.os)
 .debug_info    0x00000000000afeb1       0x8c /sources/glibc/src/glibc-2.37/build/libc_pic.a(memset-sse2-unaligned-erms.os)
 .debug_info    0x00000000000aff3d       0x3b /sources/glibc/src/glibc-2.37/build/libc_pic.a(rawmemchr-avx2.os)
 .debug_info    0x00000000000aff78       0x3b /sources/glibc/src/glibc-2.37/build/libc_pic.a(rawmemchr-avx2-rtm.os)
 .debug_info    0x00000000000affb3       0x3b /sources/glibc/src/glibc-2.37/build/libc_pic.a(rawmemchr-evex.os)
 .debug_info    0x00000000000affee       0x3b /sources/glibc/src/glibc-2.37/build/libc_pic.a(rawmemchr-evex-rtm.os)
 .debug_info    0x00000000000b0029       0x3b /sources/glibc/src/glibc-2.37/build/libc_pic.a(rawmemchr-sse2.os)
 .debug_info    0x00000000000b0064       0x3b /sources/glibc/src/glibc-2.37/build/libc_pic.a(stpcpy-avx2.os)
 .debug_info    0x00000000000b009f       0x3b /sources/glibc/src/glibc-2.37/build/libc_pic.a(stpcpy-avx2-rtm.os)
 .debug_info    0x00000000000b00da       0x3b /sources/glibc/src/glibc-2.37/build/libc_pic.a(stpcpy-evex.os)
 .debug_info    0x00000000000b0115       0x3b /sources/glibc/src/glibc-2.37/build/libc_pic.a(stpcpy-sse2.os)
 .debug_info    0x00000000000b0150       0x3b /sources/glibc/src/glibc-2.37/build/libc_pic.a(stpcpy-sse2-unaligned.os)
 .debug_info    0x00000000000b018b       0x3b /sources/glibc/src/glibc-2.37/build/libc_pic.a(strchr-avx2.os)
 .debug_info    0x00000000000b01c6       0x3b /sources/glibc/src/glibc-2.37/build/libc_pic.a(strchr-avx2-rtm.os)
 .debug_info    0x00000000000b0201       0x3b /sources/glibc/src/glibc-2.37/build/libc_pic.a(strchr-evex.os)
 .debug_info    0x00000000000b023c       0x3b /sources/glibc/src/glibc-2.37/build/libc_pic.a(strchr-sse2.os)
 .debug_info    0x00000000000b0277       0x3b /sources/glibc/src/glibc-2.37/build/libc_pic.a(strchr-sse2-no-bsf.os)
 .debug_info    0x00000000000b02b2       0x3b /sources/glibc/src/glibc-2.37/build/libc_pic.a(strcmp-avx2.os)
 .debug_info    0x00000000000b02ed       0x3b /sources/glibc/src/glibc-2.37/build/libc_pic.a(strcmp-avx2-rtm.os)
 .debug_info    0x00000000000b0328       0x3b /sources/glibc/src/glibc-2.37/build/libc_pic.a(strcmp-evex.os)
 .debug_info    0x00000000000b0363       0x3b /sources/glibc/src/glibc-2.37/build/libc_pic.a(strcmp-sse2.os)
 .debug_info    0x00000000000b039e       0x3b /sources/glibc/src/glibc-2.37/build/libc_pic.a(strcmp-sse2-unaligned.os)
 .debug_info    0x00000000000b03d9       0x3b /sources/glibc/src/glibc-2.37/build/libc_pic.a(strcmp-sse4_2.os)
 .debug_info    0x00000000000b0414      0x97a /sources/glibc/src/glibc-2.37/build/libc_pic.a(strcspn-sse4.os)
 .debug_info    0x00000000000b0d8e       0x3b /sources/glibc/src/glibc-2.37/build/libc_pic.a(strlen-avx2.os)
 .debug_info    0x00000000000b0dc9       0x3b /sources/glibc/src/glibc-2.37/build/libc_pic.a(strlen-avx2-rtm.os)
 .debug_info    0x00000000000b0e04       0x3b /sources/glibc/src/glibc-2.37/build/libc_pic.a(strlen-evex.os)
 .debug_info    0x00000000000b0e3f       0x3b /sources/glibc/src/glibc-2.37/build/libc_pic.a(strlen-sse2.os)
 .debug_info    0x00000000000b0e7a       0x3b /sources/glibc/src/glibc-2.37/build/libc_pic.a(strncmp-avx2.os)
 .debug_info    0x00000000000b0eb5       0x3b /sources/glibc/src/glibc-2.37/build/libc_pic.a(strncmp-avx2-rtm.os)
 .debug_info    0x00000000000b0ef0       0x3b /sources/glibc/src/glibc-2.37/build/libc_pic.a(strncmp-evex.os)
 .debug_info    0x00000000000b0f2b       0x3b /sources/glibc/src/glibc-2.37/build/libc_pic.a(strncmp-sse2.os)
 .debug_info    0x00000000000b0f66       0x3b /sources/glibc/src/glibc-2.37/build/libc_pic.a(strncmp-sse4_2.os)
 .debug_info    0x00000000000b0fa1       0x3b /sources/glibc/src/glibc-2.37/build/libc_pic.a(strnlen-avx2.os)
 .debug_info    0x00000000000b0fdc       0x3b /sources/glibc/src/glibc-2.37/build/libc_pic.a(strnlen-avx2-rtm.os)
 .debug_info    0x00000000000b1017       0x3b /sources/glibc/src/glibc-2.37/build/libc_pic.a(strnlen-evex.os)
 .debug_info    0x00000000000b1052       0x3b /sources/glibc/src/glibc-2.37/build/libc_pic.a(strnlen-sse2.os)
 .debug_info    0x00000000000b108d       0xa7 /sources/glibc/src/glibc-2.37/build/libc_pic.a(varshift.os)
 .debug_info    0x00000000000b1134      0x56b /sources/glibc/src/glibc-2.37/build/libc_pic.a(strcspn-generic.os)
 .debug_info    0x00000000000b169f     0x29ec /sources/glibc/src/glibc-2.37/build/libc_pic.a(cacheinfo.os)
 .debug_info    0x00000000000b408b      0x544 /sources/glibc/src/glibc-2.37/build/libc_pic.a(closedir.os)
 .debug_info    0x00000000000b45cf      0x5c0 /sources/glibc/src/glibc-2.37/build/libc_pic.a(rewinddir.os)
 .debug_info    0x00000000000b4b8f      0x711 /sources/glibc/src/glibc-2.37/build/libc_pic.a(readdir64.os)
 .debug_info    0x00000000000b52a0      0x767 /sources/glibc/src/glibc-2.37/build/libc_pic.a(fdopendir.os)
 .debug_info    0x00000000000b5a07       0x6a /sources/glibc/src/glibc-2.37/build/libc_pic.a(uname.os)
 .debug_info    0x00000000000b5a71      0x45a /sources/glibc/src/glibc-2.37/build/libc_pic.a(_exit.os)
 .debug_info    0x00000000000b5ecb       0x6a /sources/glibc/src/glibc-2.37/build/libc_pic.a(getpid.os)
 .debug_info    0x00000000000b5f35       0xb2 /sources/glibc/src/glibc-2.37/build/libc_pic.a(environ.os)
 .debug_info    0x00000000000b5fe7      0x298 /sources/glibc/src/glibc-2.37/build/libc_pic.a(stat64.os)
 .debug_info    0x00000000000b627f      0x2a8 /sources/glibc/src/glibc-2.37/build/libc_pic.a(fstat64.os)
 .debug_info    0x00000000000b6527      0x29a /sources/glibc/src/glibc-2.37/build/libc_pic.a(lstat64.os)
 .debug_info    0x00000000000b67c1      0x764 /sources/glibc/src/glibc-2.37/build/libc_pic.a(fstatat64.os)
 .debug_info    0x00000000000b6f25      0x6ec /sources/glibc/src/glibc-2.37/build/libc_pic.a(openat64.os)
 .debug_info    0x00000000000b7611      0x4d4 /sources/glibc/src/glibc-2.37/build/libc_pic.a(lseek64.os)
 .debug_info    0x00000000000b7ae5      0x497 /sources/glibc/src/glibc-2.37/build/libc_pic.a(access.os)
 .debug_info    0x00000000000b7f7c      0x469 /sources/glibc/src/glibc-2.37/build/libc_pic.a(close_nocancel.os)
 .debug_info    0x00000000000b83e5      0x940 /sources/glibc/src/glibc-2.37/build/libc_pic.a(fcntl_nocancel.os)
 .debug_info    0x00000000000b8d25      0x5ae /sources/glibc/src/glibc-2.37/build/libc_pic.a(open64_nocancel.os)
 .debug_info    0x00000000000b92d3      0x4e2 /sources/glibc/src/glibc-2.37/build/libc_pic.a(read_nocancel.os)
 .debug_info    0x00000000000b97b5      0x51a /sources/glibc/src/glibc-2.37/build/libc_pic.a(pread64_nocancel.os)
 .debug_info    0x00000000000b9ccf      0x4e6 /sources/glibc/src/glibc-2.37/build/libc_pic.a(write_nocancel.os)
 .debug_info    0x00000000000ba1b5      0x641 /sources/glibc/src/glibc-2.37/build/libc_pic.a(mmap64.os)
 .debug_info    0x00000000000ba7f6       0x6a /sources/glibc/src/glibc-2.37/build/libc_pic.a(munmap.os)
 .debug_info    0x00000000000ba860       0x6a /sources/glibc/src/glibc-2.37/build/libc_pic.a(mprotect.os)
 .debug_info    0x00000000000ba8ca       0x57 /sources/glibc/src/glibc-2.37/build/libc_pic.a(single_threaded.os)
 .debug_info    0x00000000000ba921      0xc56 /sources/glibc/src/glibc-2.37/build/libc_pic.a(profil.os)
 .debug_info    0x00000000000bb577     0x2123 /sources/glibc/src/glibc-2.37/build/libc_pic.a(prof-freq.os)
 .debug_info    0x00000000000bd69a      0xe23 /sources/glibc/src/glibc-2.37/build/libc_pic.a(dl-addr-obj.os)
 .debug_info    0x00000000000be4bd      0x96b /sources/glibc/src/glibc-2.37/build/libc_pic.a(sigaction.os)
 .debug_info    0x00000000000bee28      0x969 /sources/glibc/src/glibc-2.37/build/libc_pic.a(libc_sigaction.os)
 .debug_info    0x00000000000bf791      0xc49 /sources/glibc/src/glibc-2.37/build/libc_pic.a(errname.os)
 .debug_info    0x00000000000c03da     0x2311 /sources/glibc/src/glibc-2.37/build/libc_pic.a(strchrnul.os)
 .debug_info    0x00000000000c26eb       0x3b /sources/glibc/src/glibc-2.37/build/libc_pic.a(strchrnul-avx2.os)
 .debug_info    0x00000000000c2726       0x3b /sources/glibc/src/glibc-2.37/build/libc_pic.a(strchrnul-avx2-rtm.os)
 .debug_info    0x00000000000c2761       0x3b /sources/glibc/src/glibc-2.37/build/libc_pic.a(strchrnul-evex.os)
 .debug_info    0x00000000000c279c       0x3b /sources/glibc/src/glibc-2.37/build/libc_pic.a(strchrnul-sse2.os)
 .debug_info    0x00000000000c27d7      0x56f /sources/glibc/src/glibc-2.37/build/libc_pic.a(setitimer.os)
 .debug_info    0x00000000000c2d46      0x4d2 /sources/glibc/src/glibc-2.37/build/libc_pic.a(getdents64.os)

.debug_abbrev   0x0000000000000000    0x18edf
 *(.debug_abbrev)
 .debug_abbrev  0x0000000000000000    0x10c8e /sources/glibc/src/glibc-2.37/build/elf/dl-allobjs.os
 .debug_abbrev  0x0000000000010c8e      0x20d /sources/glibc/src/glibc-2.37/build/libc_pic.a(check_fds.os)
 .debug_abbrev  0x0000000000010e9b      0x11c /sources/glibc/src/glibc-2.37/build/libc_pic.a(errno.os)
 .debug_abbrev  0x0000000000010fb7       0x28 /sources/glibc/src/glibc-2.37/build/libc_pic.a(setjmp.os)
 .debug_abbrev  0x0000000000010fdf       0x28 /sources/glibc/src/glibc-2.37/build/libc_pic.a(__longjmp.os)
 .debug_abbrev  0x0000000000011007      0x29f /sources/glibc/src/glibc-2.37/build/libc_pic.a(lowlevellock.os)
 .debug_abbrev  0x00000000000112a6      0x21e /sources/glibc/src/glibc-2.37/build/libc_pic.a(scratch_buffer_set_array_size.os)
 .debug_abbrev  0x00000000000114c4      0x3a2 /sources/glibc/src/glibc-2.37/build/libc_pic.a(memchr.os)
 .debug_abbrev  0x0000000000011866      0x3a2 /sources/glibc/src/glibc-2.37/build/libc_pic.a(memcmp.os)
 .debug_abbrev  0x0000000000011c08      0x3a2 /sources/glibc/src/glibc-2.37/build/libc_pic.a(memcpy.os)
 .debug_abbrev  0x0000000000011faa      0x3a2 /sources/glibc/src/glibc-2.37/build/libc_pic.a(memmove.os)
 .debug_abbrev  0x000000000001234c      0x3a2 /sources/glibc/src/glibc-2.37/build/libc_pic.a(mempcpy.os)
 .debug_abbrev  0x00000000000126ee      0x3a2 /sources/glibc/src/glibc-2.37/build/libc_pic.a(memset.os)
 .debug_abbrev  0x0000000000012a90      0x3a2 /sources/glibc/src/glibc-2.37/build/libc_pic.a(rawmemchr.os)
 .debug_abbrev  0x0000000000012e32      0x3a1 /sources/glibc/src/glibc-2.37/build/libc_pic.a(stpcpy.os)
 .debug_abbrev  0x00000000000131d3      0x3a2 /sources/glibc/src/glibc-2.37/build/libc_pic.a(strchr.os)
 .debug_abbrev  0x0000000000013575      0x3a1 /sources/glibc/src/glibc-2.37/build/libc_pic.a(strcmp.os)
 .debug_abbrev  0x0000000000013916      0x381 /sources/glibc/src/glibc-2.37/build/libc_pic.a(strcspn.os)
 .debug_abbrev  0x0000000000013c97      0x108 /sources/glibc/src/glibc-2.37/build/libc_pic.a(strdup.os)
 .debug_abbrev  0x0000000000013d9f       0x9c /sources/glibc/src/glibc-2.37/build/libc_pic.a(strerrorname_np.os)
 .debug_abbrev  0x0000000000013e3b      0x3a2 /sources/glibc/src/glibc-2.37/build/libc_pic.a(strlen.os)
 .debug_abbrev  0x00000000000141dd      0x3a2 /sources/glibc/src/glibc-2.37/build/libc_pic.a(strncmp.os)
 .debug_abbrev  0x000000000001457f      0x3a2 /sources/glibc/src/glibc-2.37/build/libc_pic.a(strnlen.os)
 .debug_abbrev  0x0000000000014921       0x28 /sources/glibc/src/glibc-2.37/build/libc_pic.a(memchr-avx2.os)
 .debug_abbrev  0x0000000000014949       0x28 /sources/glibc/src/glibc-2.37/build/libc_pic.a(memchr-avx2-rtm.os)
 .debug_abbrev  0x0000000000014971       0x28 /sources/glibc/src/glibc-2.37/build/libc_pic.a(memchr-evex.os)
 .debug_abbrev  0x0000000000014999       0x28 /sources/glibc/src/glibc-2.37/build/libc_pic.a(memchr-evex-rtm.os)
 .debug_abbrev  0x00000000000149c1       0x28 /sources/glibc/src/glibc-2.37/build/libc_pic.a(memchr-sse2.os)
 .debug_abbrev  0x00000000000149e9       0x28 /sources/glibc/src/glibc-2.37/build/libc_pic.a(memcmp-avx2-movbe.os)
 .debug_abbrev  0x0000000000014a11       0x28 /sources/glibc/src/glibc-2.37/build/libc_pic.a(memcmp-avx2-movbe-rtm.os)
 .debug_abbrev  0x0000000000014a39       0x28 /sources/glibc/src/glibc-2.37/build/libc_pic.a(memcmp-evex-movbe.os)
 .debug_abbrev  0x0000000000014a61       0x28 /sources/glibc/src/glibc-2.37/build/libc_pic.a(memcmp-sse2.os)
 .debug_abbrev  0x0000000000014a89       0x28 /sources/glibc/src/glibc-2.37/build/libc_pic.a(memmove-avx-unaligned-erms.os)
 .debug_abbrev  0x0000000000014ab1       0x28 /sources/glibc/src/glibc-2.37/build/libc_pic.a(memmove-avx-unaligned-erms-rtm.os)
 .debug_abbrev  0x0000000000014ad9       0x28 /sources/glibc/src/glibc-2.37/build/libc_pic.a(memmove-avx512-no-vzeroupper.os)
 .debug_abbrev  0x0000000000014b01       0x28 /sources/glibc/src/glibc-2.37/build/libc_pic.a(memmove-avx512-unaligned-erms.os)
 .debug_abbrev  0x0000000000014b29       0x28 /sources/glibc/src/glibc-2.37/build/libc_pic.a(memmove-erms.os)
 .debug_abbrev  0x0000000000014b51       0x28 /sources/glibc/src/glibc-2.37/build/libc_pic.a(memmove-evex-unaligned-erms.os)
 .debug_abbrev  0x0000000000014b79       0x28 /sources/glibc/src/glibc-2.37/build/libc_pic.a(memmove-sse2-unaligned-erms.os)
 .debug_abbrev  0x0000000000014ba1       0x28 /sources/glibc/src/glibc-2.37/build/libc_pic.a(memmove-ssse3.os)
 .debug_abbrev  0x0000000000014bc9       0x28 /sources/glibc/src/glibc-2.37/build/libc_pic.a(memset-avx2-unaligned-erms.os)
 .debug_abbrev  0x0000000000014bf1       0x28 /sources/glibc/src/glibc-2.37/build/libc_pic.a(memset-avx2-unaligned-erms-rtm.os)
 .debug_abbrev  0x0000000000014c19       0x28 /sources/glibc/src/glibc-2.37/build/libc_pic.a(memset-avx512-no-vzeroupper.os)
 .debug_abbrev  0x0000000000014c41       0x28 /sources/glibc/src/glibc-2.37/build/libc_pic.a(memset-avx512-unaligned-erms.os)
 .debug_abbrev  0x0000000000014c69       0x28 /sources/glibc/src/glibc-2.37/build/libc_pic.a(memset-erms.os)
 .debug_abbrev  0x0000000000014c91       0x28 /sources/glibc/src/glibc-2.37/build/libc_pic.a(memset-evex-unaligned-erms.os)
 .debug_abbrev  0x0000000000014cb9       0x28 /sources/glibc/src/glibc-2.37/build/libc_pic.a(memset-sse2-unaligned-erms.os)
 .debug_abbrev  0x0000000000014ce1       0x28 /sources/glibc/src/glibc-2.37/build/libc_pic.a(rawmemchr-avx2.os)
 .debug_abbrev  0x0000000000014d09       0x28 /sources/glibc/src/glibc-2.37/build/libc_pic.a(rawmemchr-avx2-rtm.os)
 .debug_abbrev  0x0000000000014d31       0x28 /sources/glibc/src/glibc-2.37/build/libc_pic.a(rawmemchr-evex.os)
 .debug_abbrev  0x0000000000014d59       0x28 /sources/glibc/src/glibc-2.37/build/libc_pic.a(rawmemchr-evex-rtm.os)
 .debug_abbrev  0x0000000000014d81       0x28 /sources/glibc/src/glibc-2.37/build/libc_pic.a(rawmemchr-sse2.os)
 .debug_abbrev  0x0000000000014da9       0x28 /sources/glibc/src/glibc-2.37/build/libc_pic.a(stpcpy-avx2.os)
 .debug_abbrev  0x0000000000014dd1       0x28 /sources/glibc/src/glibc-2.37/build/libc_pic.a(stpcpy-avx2-rtm.os)
 .debug_abbrev  0x0000000000014df9       0x28 /sources/glibc/src/glibc-2.37/build/libc_pic.a(stpcpy-evex.os)
 .debug_abbrev  0x0000000000014e21       0x28 /sources/glibc/src/glibc-2.37/build/libc_pic.a(stpcpy-sse2.os)
 .debug_abbrev  0x0000000000014e49       0x28 /sources/glibc/src/glibc-2.37/build/libc_pic.a(stpcpy-sse2-unaligned.os)
 .debug_abbrev  0x0000000000014e71       0x28 /sources/glibc/src/glibc-2.37/build/libc_pic.a(strchr-avx2.os)
 .debug_abbrev  0x0000000000014e99       0x28 /sources/glibc/src/glibc-2.37/build/libc_pic.a(strchr-avx2-rtm.os)
 .debug_abbrev  0x0000000000014ec1       0x28 /sources/glibc/src/glibc-2.37/build/libc_pic.a(strchr-evex.os)
 .debug_abbrev  0x0000000000014ee9       0x28 /sources/glibc/src/glibc-2.37/build/libc_pic.a(strchr-sse2.os)
 .debug_abbrev  0x0000000000014f11       0x28 /sources/glibc/src/glibc-2.37/build/libc_pic.a(strchr-sse2-no-bsf.os)
 .debug_abbrev  0x0000000000014f39       0x28 /sources/glibc/src/glibc-2.37/build/libc_pic.a(strcmp-avx2.os)
 .debug_abbrev  0x0000000000014f61       0x28 /sources/glibc/src/glibc-2.37/build/libc_pic.a(strcmp-avx2-rtm.os)
 .debug_abbrev  0x0000000000014f89       0x28 /sources/glibc/src/glibc-2.37/build/libc_pic.a(strcmp-evex.os)
 .debug_abbrev  0x0000000000014fb1       0x28 /sources/glibc/src/glibc-2.37/build/libc_pic.a(strcmp-sse2.os)
 .debug_abbrev  0x0000000000014fd9       0x28 /sources/glibc/src/glibc-2.37/build/libc_pic.a(strcmp-sse2-unaligned.os)
 .debug_abbrev  0x0000000000015001       0x28 /sources/glibc/src/glibc-2.37/build/libc_pic.a(strcmp-sse4_2.os)
 .debug_abbrev  0x0000000000015029      0x261 /sources/glibc/src/glibc-2.37/build/libc_pic.a(strcspn-sse4.os)
 .debug_abbrev  0x000000000001528a       0x28 /sources/glibc/src/glibc-2.37/build/libc_pic.a(strlen-avx2.os)
 .debug_abbrev  0x00000000000152b2       0x28 /sources/glibc/src/glibc-2.37/build/libc_pic.a(strlen-avx2-rtm.os)
 .debug_abbrev  0x00000000000152da       0x28 /sources/glibc/src/glibc-2.37/build/libc_pic.a(strlen-evex.os)
 .debug_abbrev  0x0000000000015302       0x28 /sources/glibc/src/glibc-2.37/build/libc_pic.a(strlen-sse2.os)
 .debug_abbrev  0x000000000001532a       0x28 /sources/glibc/src/glibc-2.37/build/libc_pic.a(strncmp-avx2.os)
 .debug_abbrev  0x0000000000015352       0x28 /sources/glibc/src/glibc-2.37/build/libc_pic.a(strncmp-avx2-rtm.os)
 .debug_abbrev  0x000000000001537a       0x28 /sources/glibc/src/glibc-2.37/build/libc_pic.a(strncmp-evex.os)
 .debug_abbrev  0x00000000000153a2       0x28 /sources/glibc/src/glibc-2.37/build/libc_pic.a(strncmp-sse2.os)
 .debug_abbrev  0x00000000000153ca       0x28 /sources/glibc/src/glibc-2.37/build/libc_pic.a(strncmp-sse4_2.os)
 .debug_abbrev  0x00000000000153f2       0x28 /sources/glibc/src/glibc-2.37/build/libc_pic.a(strnlen-avx2.os)
 .debug_abbrev  0x000000000001541a       0x28 /sources/glibc/src/glibc-2.37/build/libc_pic.a(strnlen-avx2-rtm.os)
 .debug_abbrev  0x0000000000015442       0x28 /sources/glibc/src/glibc-2.37/build/libc_pic.a(strnlen-evex.os)
 .debug_abbrev  0x000000000001546a       0x28 /sources/glibc/src/glibc-2.37/build/libc_pic.a(strnlen-sse2.os)
 .debug_abbrev  0x0000000000015492       0x64 /sources/glibc/src/glibc-2.37/build/libc_pic.a(varshift.os)
 .debug_abbrev  0x00000000000154f6      0x1b8 /sources/glibc/src/glibc-2.37/build/libc_pic.a(strcspn-generic.os)
 .debug_abbrev  0x00000000000156ae      0x3d5 /sources/glibc/src/glibc-2.37/build/libc_pic.a(cacheinfo.os)
 .debug_abbrev  0x0000000000015a83      0x1d7 /sources/glibc/src/glibc-2.37/build/libc_pic.a(closedir.os)
 .debug_abbrev  0x0000000000015c5a      0x1ca /sources/glibc/src/glibc-2.37/build/libc_pic.a(rewinddir.os)
 .debug_abbrev  0x0000000000015e24      0x207 /sources/glibc/src/glibc-2.37/build/libc_pic.a(readdir64.os)
 .debug_abbrev  0x000000000001602b      0x1f5 /sources/glibc/src/glibc-2.37/build/libc_pic.a(fdopendir.os)
 .debug_abbrev  0x0000000000016220       0x28 /sources/glibc/src/glibc-2.37/build/libc_pic.a(uname.os)
 .debug_abbrev  0x0000000000016248      0x142 /sources/glibc/src/glibc-2.37/build/libc_pic.a(_exit.os)
 .debug_abbrev  0x000000000001638a       0x28 /sources/glibc/src/glibc-2.37/build/libc_pic.a(getpid.os)
 .debug_abbrev  0x00000000000163b2       0x72 /sources/glibc/src/glibc-2.37/build/libc_pic.a(environ.os)
 .debug_abbrev  0x0000000000016424       0xfa /sources/glibc/src/glibc-2.37/build/libc_pic.a(stat64.os)
 .debug_abbrev  0x000000000001651e       0xfb /sources/glibc/src/glibc-2.37/build/libc_pic.a(fstat64.os)
 .debug_abbrev  0x0000000000016619       0xfa /sources/glibc/src/glibc-2.37/build/libc_pic.a(lstat64.os)
 .debug_abbrev  0x0000000000016713      0x1ff /sources/glibc/src/glibc-2.37/build/libc_pic.a(fstatat64.os)
 .debug_abbrev  0x0000000000016912      0x1fb /sources/glibc/src/glibc-2.37/build/libc_pic.a(openat64.os)
 .debug_abbrev  0x0000000000016b0d      0x170 /sources/glibc/src/glibc-2.37/build/libc_pic.a(lseek64.os)
 .debug_abbrev  0x0000000000016c7d      0x14f /sources/glibc/src/glibc-2.37/build/libc_pic.a(access.os)
 .debug_abbrev  0x0000000000016dcc      0x14a /sources/glibc/src/glibc-2.37/build/libc_pic.a(close_nocancel.os)
 .debug_abbrev  0x0000000000016f16      0x28c /sources/glibc/src/glibc-2.37/build/libc_pic.a(fcntl_nocancel.os)
 .debug_abbrev  0x00000000000171a2      0x1a8 /sources/glibc/src/glibc-2.37/build/libc_pic.a(open64_nocancel.os)
 .debug_abbrev  0x000000000001734a      0x16a /sources/glibc/src/glibc-2.37/build/libc_pic.a(read_nocancel.os)
 .debug_abbrev  0x00000000000174b4      0x163 /sources/glibc/src/glibc-2.37/build/libc_pic.a(pread64_nocancel.os)
 .debug_abbrev  0x0000000000017617      0x168 /sources/glibc/src/glibc-2.37/build/libc_pic.a(write_nocancel.os)
 .debug_abbrev  0x000000000001777f      0x1b2 /sources/glibc/src/glibc-2.37/build/libc_pic.a(mmap64.os)
 .debug_abbrev  0x0000000000017931       0x28 /sources/glibc/src/glibc-2.37/build/libc_pic.a(munmap.os)
 .debug_abbrev  0x0000000000017959       0x28 /sources/glibc/src/glibc-2.37/build/libc_pic.a(mprotect.os)
 .debug_abbrev  0x0000000000017981       0x48 /sources/glibc/src/glibc-2.37/build/libc_pic.a(single_threaded.os)
 .debug_abbrev  0x00000000000179c9      0x30c /sources/glibc/src/glibc-2.37/build/libc_pic.a(profil.os)
 .debug_abbrev  0x0000000000017cd5      0x31a /sources/glibc/src/glibc-2.37/build/libc_pic.a(prof-freq.os)
 .debug_abbrev  0x0000000000017fef      0x218 /sources/glibc/src/glibc-2.37/build/libc_pic.a(dl-addr-obj.os)
 .debug_abbrev  0x0000000000018207      0x1ff /sources/glibc/src/glibc-2.37/build/libc_pic.a(sigaction.os)
 .debug_abbrev  0x0000000000018406      0x21d /sources/glibc/src/glibc-2.37/build/libc_pic.a(libc_sigaction.os)
 .debug_abbrev  0x0000000000018623      0x199 /sources/glibc/src/glibc-2.37/build/libc_pic.a(errname.os)
 .debug_abbrev  0x00000000000187bc      0x3a2 /sources/glibc/src/glibc-2.37/build/libc_pic.a(strchrnul.os)
 .debug_abbrev  0x0000000000018b5e       0x28 /sources/glibc/src/glibc-2.37/build/libc_pic.a(strchrnul-avx2.os)
 .debug_abbrev  0x0000000000018b86       0x28 /sources/glibc/src/glibc-2.37/build/libc_pic.a(strchrnul-avx2-rtm.os)
 .debug_abbrev  0x0000000000018bae       0x28 /sources/glibc/src/glibc-2.37/build/libc_pic.a(strchrnul-evex.os)
 .debug_abbrev  0x0000000000018bd6       0x28 /sources/glibc/src/glibc-2.37/build/libc_pic.a(strchrnul-sse2.os)
 .debug_abbrev  0x0000000000018bfe      0x180 /sources/glibc/src/glibc-2.37/build/libc_pic.a(setitimer.os)
 .debug_abbrev  0x0000000000018d7e      0x161 /sources/glibc/src/glibc-2.37/build/libc_pic.a(getdents64.os)

.debug_line     0x0000000000000000    0x25e21
 *(.debug_line)
 .debug_line    0x0000000000000000    0x1ccbe /sources/glibc/src/glibc-2.37/build/elf/dl-allobjs.os
 .debug_line    0x000000000001ccbe      0x13a /sources/glibc/src/glibc-2.37/build/libc_pic.a(check_fds.os)
 .debug_line    0x000000000001cdf8       0x71 /sources/glibc/src/glibc-2.37/build/libc_pic.a(errno.os)
 .debug_line    0x000000000001ce69       0x5f /sources/glibc/src/glibc-2.37/build/libc_pic.a(setjmp.os)
 .debug_line    0x000000000001cec8       0x5d /sources/glibc/src/glibc-2.37/build/libc_pic.a(__longjmp.os)
 .debug_line    0x000000000001cf25      0x1c6 /sources/glibc/src/glibc-2.37/build/libc_pic.a(lowlevellock.os)
 .debug_line    0x000000000001d0eb      0x16a /sources/glibc/src/glibc-2.37/build/libc_pic.a(scratch_buffer_set_array_size.os)
 .debug_line    0x000000000001d255      0x17f /sources/glibc/src/glibc-2.37/build/libc_pic.a(memchr.os)
 .debug_line    0x000000000001d3d4      0x16d /sources/glibc/src/glibc-2.37/build/libc_pic.a(memcmp.os)
 .debug_line    0x000000000001d541      0x1bf /sources/glibc/src/glibc-2.37/build/libc_pic.a(memcpy.os)
 .debug_line    0x000000000001d700      0x1bf /sources/glibc/src/glibc-2.37/build/libc_pic.a(memmove.os)
 .debug_line    0x000000000001d8bf      0x1bf /sources/glibc/src/glibc-2.37/build/libc_pic.a(mempcpy.os)
 .debug_line    0x000000000001da7e      0x1be /sources/glibc/src/glibc-2.37/build/libc_pic.a(memset.os)
 .debug_line    0x000000000001dc3c      0x17d /sources/glibc/src/glibc-2.37/build/libc_pic.a(rawmemchr.os)
 .debug_line    0x000000000001ddb9      0x171 /sources/glibc/src/glibc-2.37/build/libc_pic.a(stpcpy.os)
 .debug_line    0x000000000001df2a      0x177 /sources/glibc/src/glibc-2.37/build/libc_pic.a(strchr.os)
 .debug_line    0x000000000001e0a1      0x182 /sources/glibc/src/glibc-2.37/build/libc_pic.a(strcmp.os)
 .debug_line    0x000000000001e223      0x142 /sources/glibc/src/glibc-2.37/build/libc_pic.a(strcspn.os)
 .debug_line    0x000000000001e365       0xa0 /sources/glibc/src/glibc-2.37/build/libc_pic.a(strdup.os)
 .debug_line    0x000000000001e405       0x5a /sources/glibc/src/glibc-2.37/build/libc_pic.a(strerrorname_np.os)
 .debug_line    0x000000000001e45f      0x16f /sources/glibc/src/glibc-2.37/build/libc_pic.a(strlen.os)
 .debug_line    0x000000000001e5ce      0x16f /sources/glibc/src/glibc-2.37/build/libc_pic.a(strncmp.os)
 .debug_line    0x000000000001e73d      0x16f /sources/glibc/src/glibc-2.37/build/libc_pic.a(strnlen.os)
 .debug_line    0x000000000001e8ac      0x102 /sources/glibc/src/glibc-2.37/build/libc_pic.a(memchr-avx2.os)
 .debug_line    0x000000000001e9ae      0x103 /sources/glibc/src/glibc-2.37/build/libc_pic.a(memchr-avx2-rtm.os)
 .debug_line    0x000000000001eab1      0x116 /sources/glibc/src/glibc-2.37/build/libc_pic.a(memchr-evex.os)
 .debug_line    0x000000000001ebc7      0x10f /sources/glibc/src/glibc-2.37/build/libc_pic.a(memchr-evex-rtm.os)
 .debug_line    0x000000000001ecd6      0x118 /sources/glibc/src/glibc-2.37/build/libc_pic.a(memchr-sse2.os)
 .debug_line    0x000000000001edee      0x13e /sources/glibc/src/glibc-2.37/build/libc_pic.a(memcmp-avx2-movbe.os)
 .debug_line    0x000000000001ef2c      0x13e /sources/glibc/src/glibc-2.37/build/libc_pic.a(memcmp-avx2-movbe-rtm.os)
 .debug_line    0x000000000001f06a       0xfb /sources/glibc/src/glibc-2.37/build/libc_pic.a(memcmp-evex-movbe.os)
 .debug_line    0x000000000001f165      0x137 /sources/glibc/src/glibc-2.37/build/libc_pic.a(memcmp-sse2.os)
 .debug_line    0x000000000001f29c      0x1a5 /sources/glibc/src/glibc-2.37/build/libc_pic.a(memmove-avx-unaligned-erms.os)
 .debug_line    0x000000000001f441      0x1a5 /sources/glibc/src/glibc-2.37/build/libc_pic.a(memmove-avx-unaligned-erms-rtm.os)
 .debug_line    0x000000000001f5e6      0x194 /sources/glibc/src/glibc-2.37/build/libc_pic.a(memmove-avx512-no-vzeroupper.os)
 .debug_line    0x000000000001f77a      0x1af /sources/glibc/src/glibc-2.37/build/libc_pic.a(memmove-avx512-unaligned-erms.os)
 .debug_line    0x000000000001f929       0x67 /sources/glibc/src/glibc-2.37/build/libc_pic.a(memmove-erms.os)
 .debug_line    0x000000000001f990      0x1b0 /sources/glibc/src/glibc-2.37/build/libc_pic.a(memmove-evex-unaligned-erms.os)
 .debug_line    0x000000000001fb40      0x186 /sources/glibc/src/glibc-2.37/build/libc_pic.a(memmove-sse2-unaligned-erms.os)
 .debug_line    0x000000000001fcc6      0x16c /sources/glibc/src/glibc-2.37/build/libc_pic.a(memmove-ssse3.os)
 .debug_line    0x000000000001fe32       0xbe /sources/glibc/src/glibc-2.37/build/libc_pic.a(memset-avx2-unaligned-erms.os)
 .debug_line    0x000000000001fef0       0xbe /sources/glibc/src/glibc-2.37/build/libc_pic.a(memset-avx2-unaligned-erms-rtm.os)
 .debug_line    0x000000000001ffae       0xcd /sources/glibc/src/glibc-2.37/build/libc_pic.a(memset-avx512-no-vzeroupper.os)
 .debug_line    0x000000000002007b       0xbc /sources/glibc/src/glibc-2.37/build/libc_pic.a(memset-avx512-unaligned-erms.os)
 .debug_line    0x0000000000020137       0x58 /sources/glibc/src/glibc-2.37/build/libc_pic.a(memset-erms.os)
 .debug_line    0x000000000002018f       0xb8 /sources/glibc/src/glibc-2.37/build/libc_pic.a(memset-evex-unaligned-erms.os)
 .debug_line    0x0000000000020247       0xb4 /sources/glibc/src/glibc-2.37/build/libc_pic.a(memset-sse2-unaligned-erms.os)
 .debug_line    0x00000000000202fb       0xb8 /sources/glibc/src/glibc-2.37/build/libc_pic.a(rawmemchr-avx2.os)
 .debug_line    0x00000000000203b3       0xb9 /sources/glibc/src/glibc-2.37/build/libc_pic.a(rawmemchr-avx2-rtm.os)
 .debug_line    0x000000000002046c       0xa0 /sources/glibc/src/glibc-2.37/build/libc_pic.a(rawmemchr-evex.os)
 .debug_line    0x000000000002050c       0x9c /sources/glibc/src/glibc-2.37/build/libc_pic.a(rawmemchr-evex-rtm.os)
 .debug_line    0x00000000000205a8       0xc2 /sources/glibc/src/glibc-2.37/build/libc_pic.a(rawmemchr-sse2.os)
 .debug_line    0x000000000002066a       0xdf /sources/glibc/src/glibc-2.37/build/libc_pic.a(stpcpy-avx2.os)
 .debug_line    0x0000000000020749       0xdf /sources/glibc/src/glibc-2.37/build/libc_pic.a(stpcpy-avx2-rtm.os)
 .debug_line    0x0000000000020828       0xe9 /sources/glibc/src/glibc-2.37/build/libc_pic.a(stpcpy-evex.os)
 .debug_line    0x0000000000020911       0x94 /sources/glibc/src/glibc-2.37/build/libc_pic.a(stpcpy-sse2.os)
 .debug_line    0x00000000000209a5      0x1c8 /sources/glibc/src/glibc-2.37/build/libc_pic.a(stpcpy-sse2-unaligned.os)
 .debug_line    0x0000000000020b6d       0xde /sources/glibc/src/glibc-2.37/build/libc_pic.a(strchr-avx2.os)
 .debug_line    0x0000000000020c4b       0xdf /sources/glibc/src/glibc-2.37/build/libc_pic.a(strchr-avx2-rtm.os)
 .debug_line    0x0000000000020d2a       0xce /sources/glibc/src/glibc-2.37/build/libc_pic.a(strchr-evex.os)
 .debug_line    0x0000000000020df8       0xd0 /sources/glibc/src/glibc-2.37/build/libc_pic.a(strchr-sse2.os)
 .debug_line    0x0000000000020ec8       0xfa /sources/glibc/src/glibc-2.37/build/libc_pic.a(strchr-sse2-no-bsf.os)
 .debug_line    0x0000000000020fc2      0x1e1 /sources/glibc/src/glibc-2.37/build/libc_pic.a(strcmp-avx2.os)
 .debug_line    0x00000000000211a3      0x1e2 /sources/glibc/src/glibc-2.37/build/libc_pic.a(strcmp-avx2-rtm.os)
 .debug_line    0x0000000000021385      0x1dd /sources/glibc/src/glibc-2.37/build/libc_pic.a(strcmp-evex.os)
 .debug_line    0x0000000000021562      0x48e /sources/glibc/src/glibc-2.37/build/libc_pic.a(strcmp-sse2.os)
 .debug_line    0x00000000000219f0       0xf2 /sources/glibc/src/glibc-2.37/build/libc_pic.a(strcmp-sse2-unaligned.os)
 .debug_line    0x0000000000021ae2      0x30b /sources/glibc/src/glibc-2.37/build/libc_pic.a(strcmp-sse4_2.os)
 .debug_line    0x0000000000021ded      0x3b8 /sources/glibc/src/glibc-2.37/build/libc_pic.a(strcspn-sse4.os)
 .debug_line    0x00000000000221a5       0xc4 /sources/glibc/src/glibc-2.37/build/libc_pic.a(strlen-avx2.os)
 .debug_line    0x0000000000022269       0xc3 /sources/glibc/src/glibc-2.37/build/libc_pic.a(strlen-avx2-rtm.os)
 .debug_line    0x000000000002232c       0xa1 /sources/glibc/src/glibc-2.37/build/libc_pic.a(strlen-evex.os)
 .debug_line    0x00000000000223cd       0x97 /sources/glibc/src/glibc-2.37/build/libc_pic.a(strlen-sse2.os)
 .debug_line    0x0000000000022464      0x21f /sources/glibc/src/glibc-2.37/build/libc_pic.a(strncmp-avx2.os)
 .debug_line    0x0000000000022683      0x21f /sources/glibc/src/glibc-2.37/build/libc_pic.a(strncmp-avx2-rtm.os)
 .debug_line    0x00000000000228a2      0x21c /sources/glibc/src/glibc-2.37/build/libc_pic.a(strncmp-evex.os)
 .debug_line    0x0000000000022abe      0x524 /sources/glibc/src/glibc-2.37/build/libc_pic.a(strncmp-sse2.os)
 .debug_line    0x0000000000022fe2      0x387 /sources/glibc/src/glibc-2.37/build/libc_pic.a(strncmp-sse4_2.os)
 .debug_line    0x0000000000023369      0x121 /sources/glibc/src/glibc-2.37/build/libc_pic.a(strnlen-avx2.os)
 .debug_line    0x000000000002348a      0x121 /sources/glibc/src/glibc-2.37/build/libc_pic.a(strnlen-avx2-rtm.os)
 .debug_line    0x00000000000235ab       0xeb /sources/glibc/src/glibc-2.37/build/libc_pic.a(strnlen-evex.os)
 .debug_line    0x0000000000023696       0x9a /sources/glibc/src/glibc-2.37/build/libc_pic.a(strnlen-sse2.os)
 .debug_line    0x0000000000023730       0x4c /sources/glibc/src/glibc-2.37/build/libc_pic.a(varshift.os)
 .debug_line    0x000000000002377c      0x1e2 /sources/glibc/src/glibc-2.37/build/libc_pic.a(strcspn-generic.os)
 .debug_line    0x000000000002395e      0x22f /sources/glibc/src/glibc-2.37/build/libc_pic.a(cacheinfo.os)
 .debug_line    0x0000000000023b8d       0xee /sources/glibc/src/glibc-2.37/build/libc_pic.a(closedir.os)
 .debug_line    0x0000000000023c7b      0x194 /sources/glibc/src/glibc-2.37/build/libc_pic.a(rewinddir.os)
 .debug_line    0x0000000000023e0f      0x1c6 /sources/glibc/src/glibc-2.37/build/libc_pic.a(readdir64.os)
 .debug_line    0x0000000000023fd5      0x12f /sources/glibc/src/glibc-2.37/build/libc_pic.a(fdopendir.os)
 .debug_line    0x0000000000024104       0x4f /sources/glibc/src/glibc-2.37/build/libc_pic.a(uname.os)
 .debug_line    0x0000000000024153       0xb5 /sources/glibc/src/glibc-2.37/build/libc_pic.a(_exit.os)
 .debug_line    0x0000000000024208       0x4f /sources/glibc/src/glibc-2.37/build/libc_pic.a(getpid.os)
 .debug_line    0x0000000000024257       0x3f /sources/glibc/src/glibc-2.37/build/libc_pic.a(environ.os)
 .debug_line    0x0000000000024296       0x7e /sources/glibc/src/glibc-2.37/build/libc_pic.a(stat64.os)
 .debug_line    0x0000000000024314       0x98 /sources/glibc/src/glibc-2.37/build/libc_pic.a(fstat64.os)
 .debug_line    0x00000000000243ac       0x7e /sources/glibc/src/glibc-2.37/build/libc_pic.a(lstat64.os)
 .debug_line    0x000000000002442a       0xee /sources/glibc/src/glibc-2.37/build/libc_pic.a(fstatat64.os)
 .debug_line    0x0000000000024518      0x208 /sources/glibc/src/glibc-2.37/build/libc_pic.a(openat64.os)
 .debug_line    0x0000000000024720       0xc4 /sources/glibc/src/glibc-2.37/build/libc_pic.a(lseek64.os)
 .debug_line    0x00000000000247e4       0xb2 /sources/glibc/src/glibc-2.37/build/libc_pic.a(access.os)
 .debug_line    0x0000000000024896       0xb0 /sources/glibc/src/glibc-2.37/build/libc_pic.a(close_nocancel.os)
 .debug_line    0x0000000000024946      0x173 /sources/glibc/src/glibc-2.37/build/libc_pic.a(fcntl_nocancel.os)
 .debug_line    0x0000000000024ab9       0xf3 /sources/glibc/src/glibc-2.37/build/libc_pic.a(open64_nocancel.os)
 .debug_line    0x0000000000024bac       0xcb /sources/glibc/src/glibc-2.37/build/libc_pic.a(read_nocancel.os)
 .debug_line    0x0000000000024c77       0xd4 /sources/glibc/src/glibc-2.37/build/libc_pic.a(pread64_nocancel.os)
 .debug_line    0x0000000000024d4b       0xcb /sources/glibc/src/glibc-2.37/build/libc_pic.a(write_nocancel.os)
 .debug_line    0x0000000000024e16       0xe1 /sources/glibc/src/glibc-2.37/build/libc_pic.a(mmap64.os)
 .debug_line    0x0000000000024ef7       0x4f /sources/glibc/src/glibc-2.37/build/libc_pic.a(munmap.os)
 .debug_line    0x0000000000024f46       0x4f /sources/glibc/src/glibc-2.37/build/libc_pic.a(mprotect.os)
 .debug_line    0x0000000000024f95       0x48 /sources/glibc/src/glibc-2.37/build/libc_pic.a(single_threaded.os)
 .debug_line    0x0000000000024fdd      0x27d /sources/glibc/src/glibc-2.37/build/libc_pic.a(profil.os)
 .debug_line    0x000000000002525a      0x125 /sources/glibc/src/glibc-2.37/build/libc_pic.a(prof-freq.os)
 .debug_line    0x000000000002537f      0x10a /sources/glibc/src/glibc-2.37/build/libc_pic.a(dl-addr-obj.os)
 .debug_line    0x0000000000025489       0xeb /sources/glibc/src/glibc-2.37/build/libc_pic.a(sigaction.os)
 .debug_line    0x0000000000025574      0x1cb /sources/glibc/src/glibc-2.37/build/libc_pic.a(libc_sigaction.os)
 .debug_line    0x000000000002573f       0xa9 /sources/glibc/src/glibc-2.37/build/libc_pic.a(errname.os)
 .debug_line    0x00000000000257e8      0x16f /sources/glibc/src/glibc-2.37/build/libc_pic.a(strchrnul.os)
 .debug_line    0x0000000000025957       0xce /sources/glibc/src/glibc-2.37/build/libc_pic.a(strchrnul-avx2.os)
 .debug_line    0x0000000000025a25       0xce /sources/glibc/src/glibc-2.37/build/libc_pic.a(strchrnul-avx2-rtm.os)
 .debug_line    0x0000000000025af3       0xc4 /sources/glibc/src/glibc-2.37/build/libc_pic.a(strchrnul-evex.os)
 .debug_line    0x0000000000025bb7       0xcb /sources/glibc/src/glibc-2.37/build/libc_pic.a(strchrnul-sse2.os)
 .debug_line    0x0000000000025c82       0xd1 /sources/glibc/src/glibc-2.37/build/libc_pic.a(setitimer.os)
 .debug_line    0x0000000000025d53       0xce /sources/glibc/src/glibc-2.37/build/libc_pic.a(getdents64.os)

.debug_frame
 *(.debug_frame)

.debug_str      0x0000000000000000    0x794bc
 *(.debug_str)
 .debug_str     0x0000000000000000    0x5199c /sources/glibc/src/glibc-2.37/build/elf/dl-allobjs.os
 .debug_str     0x000000000005199c      0x516 /sources/glibc/src/glibc-2.37/build/libc_pic.a(check_fds.os)
 .debug_str     0x0000000000051eb2      0x3ac /sources/glibc/src/glibc-2.37/build/libc_pic.a(errno.os)
 .debug_str     0x000000000005225e       0x69 /sources/glibc/src/glibc-2.37/build/libc_pic.a(setjmp.os)
 .debug_str     0x00000000000522c7       0x59 /sources/glibc/src/glibc-2.37/build/libc_pic.a(__longjmp.os)
 .debug_str     0x0000000000052320      0x529 /sources/glibc/src/glibc-2.37/build/libc_pic.a(lowlevellock.os)
 .debug_str     0x0000000000052849      0x270 /sources/glibc/src/glibc-2.37/build/libc_pic.a(scratch_buffer_set_array_size.os)
 .debug_str     0x0000000000052ab9     0x1995 /sources/glibc/src/glibc-2.37/build/libc_pic.a(memchr.os)
 .debug_str     0x000000000005444e     0x1995 /sources/glibc/src/glibc-2.37/build/libc_pic.a(memcmp.os)
 .debug_str     0x0000000000055de3     0x1aae /sources/glibc/src/glibc-2.37/build/libc_pic.a(memcpy.os)
 .debug_str     0x0000000000057891     0x1aa9 /sources/glibc/src/glibc-2.37/build/libc_pic.a(memmove.os)
 .debug_str     0x000000000005933a     0x1aa4 /sources/glibc/src/glibc-2.37/build/libc_pic.a(mempcpy.os)
 .debug_str     0x000000000005adde     0x1a88 /sources/glibc/src/glibc-2.37/build/libc_pic.a(memset.os)
 .debug_str     0x000000000005c866     0x19ac /sources/glibc/src/glibc-2.37/build/libc_pic.a(rawmemchr.os)
 .debug_str     0x000000000005e212     0x199d /sources/glibc/src/glibc-2.37/build/libc_pic.a(stpcpy.os)
 .debug_str     0x000000000005fbaf     0x1998 /sources/glibc/src/glibc-2.37/build/libc_pic.a(strchr.os)
 .debug_str     0x0000000000061547     0x19aa /sources/glibc/src/glibc-2.37/build/libc_pic.a(strcmp.os)
 .debug_str     0x0000000000062ef1     0x1605 /sources/glibc/src/glibc-2.37/build/libc_pic.a(strcspn.os)
 .debug_str     0x00000000000644f6      0x1b5 /sources/glibc/src/glibc-2.37/build/libc_pic.a(strdup.os)
 .debug_str     0x00000000000646ab      0x14d /sources/glibc/src/glibc-2.37/build/libc_pic.a(strerrorname_np.os)
 .debug_str     0x00000000000647f8     0x1983 /sources/glibc/src/glibc-2.37/build/libc_pic.a(strlen.os)
 .debug_str     0x000000000006617b     0x1999 /sources/glibc/src/glibc-2.37/build/libc_pic.a(strncmp.os)
 .debug_str     0x0000000000067b14     0x198b /sources/glibc/src/glibc-2.37/build/libc_pic.a(strnlen.os)
 .debug_str     0x000000000006949f       0x69 /sources/glibc/src/glibc-2.37/build/libc_pic.a(memchr-avx2.os)
 .debug_str     0x0000000000069508       0x6d /sources/glibc/src/glibc-2.37/build/libc_pic.a(memchr-avx2-rtm.os)
 .debug_str     0x0000000000069575       0x69 /sources/glibc/src/glibc-2.37/build/libc_pic.a(memchr-evex.os)
 .debug_str     0x00000000000695de       0x6d /sources/glibc/src/glibc-2.37/build/libc_pic.a(memchr-evex-rtm.os)
 .debug_str     0x000000000006964b       0x69 /sources/glibc/src/glibc-2.37/build/libc_pic.a(memchr-sse2.os)
 .debug_str     0x00000000000696b4       0x75 /sources/glibc/src/glibc-2.37/build/libc_pic.a(memcmp-avx2-movbe.os)
 .debug_str     0x0000000000069729       0x79 /sources/glibc/src/glibc-2.37/build/libc_pic.a(memcmp-avx2-movbe-rtm.os)
 .debug_str     0x00000000000697a2       0x75 /sources/glibc/src/glibc-2.37/build/libc_pic.a(memcmp-evex-movbe.os)
 .debug_str     0x0000000000069817       0x69 /sources/glibc/src/glibc-2.37/build/libc_pic.a(memcmp-sse2.os)
 .debug_str     0x0000000000069880      0x1bc /sources/glibc/src/glibc-2.37/build/libc_pic.a(memmove-avx-unaligned-erms.os)
 .debug_str     0x0000000000069a3c      0x1ec /sources/glibc/src/glibc-2.37/build/libc_pic.a(memmove-avx-unaligned-erms-rtm.os)
 .debug_str     0x0000000000069c28      0x130 /sources/glibc/src/glibc-2.37/build/libc_pic.a(memmove-avx512-no-vzeroupper.os)
 .debug_str     0x0000000000069d58      0x1e0 /sources/glibc/src/glibc-2.37/build/libc_pic.a(memmove-avx512-unaligned-erms.os)
 .debug_str     0x0000000000069f38       0xc0 /sources/glibc/src/glibc-2.37/build/libc_pic.a(memmove-erms.os)
 .debug_str     0x0000000000069ff8      0x1c8 /sources/glibc/src/glibc-2.37/build/libc_pic.a(memmove-evex-unaligned-erms.os)
 .debug_str     0x000000000006a1c0      0x1c8 /sources/glibc/src/glibc-2.37/build/libc_pic.a(memmove-sse2-unaligned-erms.os)
 .debug_str     0x000000000006a388       0xc7 /sources/glibc/src/glibc-2.37/build/libc_pic.a(memmove-ssse3.os)
 .debug_str     0x000000000006a44f      0x111 /sources/glibc/src/glibc-2.37/build/libc_pic.a(memset-avx2-unaligned-erms.os)
 .debug_str     0x000000000006a560      0x129 /sources/glibc/src/glibc-2.37/build/libc_pic.a(memset-avx2-unaligned-erms-rtm.os)
 .debug_str     0x000000000006a689       0xab /sources/glibc/src/glibc-2.37/build/libc_pic.a(memset-avx512-no-vzeroupper.os)
 .debug_str     0x000000000006a734      0x11d /sources/glibc/src/glibc-2.37/build/libc_pic.a(memset-avx512-unaligned-erms.os)
 .debug_str     0x000000000006a851       0x7b /sources/glibc/src/glibc-2.37/build/libc_pic.a(memset-erms.os)
 .debug_str     0x000000000006a8cc      0x111 /sources/glibc/src/glibc-2.37/build/libc_pic.a(memset-evex-unaligned-erms.os)
 .debug_str     0x000000000006a9dd      0x111 /sources/glibc/src/glibc-2.37/build/libc_pic.a(memset-sse2-unaligned-erms.os)
 .debug_str     0x000000000006aaee       0x6c /sources/glibc/src/glibc-2.37/build/libc_pic.a(rawmemchr-avx2.os)
 .debug_str     0x000000000006ab5a       0x70 /sources/glibc/src/glibc-2.37/build/libc_pic.a(rawmemchr-avx2-rtm.os)
 .debug_str     0x000000000006abca       0x6f /sources/glibc/src/glibc-2.37/build/libc_pic.a(rawmemchr-evex.os)
 .debug_str     0x000000000006ac39       0x73 /sources/glibc/src/glibc-2.37/build/libc_pic.a(rawmemchr-evex-rtm.os)
 .debug_str     0x000000000006acac       0x6f /sources/glibc/src/glibc-2.37/build/libc_pic.a(rawmemchr-sse2.os)
 .debug_str     0x000000000006ad1b       0x69 /sources/glibc/src/glibc-2.37/build/libc_pic.a(stpcpy-avx2.os)
 .debug_str     0x000000000006ad84       0x6d /sources/glibc/src/glibc-2.37/build/libc_pic.a(stpcpy-avx2-rtm.os)
 .debug_str     0x000000000006adf1       0x69 /sources/glibc/src/glibc-2.37/build/libc_pic.a(stpcpy-evex.os)
 .debug_str     0x000000000006ae5a       0x69 /sources/glibc/src/glibc-2.37/build/libc_pic.a(stpcpy-sse2.os)
 .debug_str     0x000000000006aec3       0x7d /sources/glibc/src/glibc-2.37/build/libc_pic.a(stpcpy-sse2-unaligned.os)
 .debug_str     0x000000000006af40       0x69 /sources/glibc/src/glibc-2.37/build/libc_pic.a(strchr-avx2.os)
 .debug_str     0x000000000006afa9       0x6d /sources/glibc/src/glibc-2.37/build/libc_pic.a(strchr-avx2-rtm.os)
 .debug_str     0x000000000006b016       0x69 /sources/glibc/src/glibc-2.37/build/libc_pic.a(strchr-evex.os)
 .debug_str     0x000000000006b07f       0x69 /sources/glibc/src/glibc-2.37/build/libc_pic.a(strchr-sse2.os)
 .debug_str     0x000000000006b0e8       0x77 /sources/glibc/src/glibc-2.37/build/libc_pic.a(strchr-sse2-no-bsf.os)
 .debug_str     0x000000000006b15f       0x69 /sources/glibc/src/glibc-2.37/build/libc_pic.a(strcmp-avx2.os)
 .debug_str     0x000000000006b1c8       0x6d /sources/glibc/src/glibc-2.37/build/libc_pic.a(strcmp-avx2-rtm.os)
 .debug_str     0x000000000006b235       0x69 /sources/glibc/src/glibc-2.37/build/libc_pic.a(strcmp-evex.os)
 .debug_str     0x000000000006b29e       0x69 /sources/glibc/src/glibc-2.37/build/libc_pic.a(strcmp-sse2.os)
 .debug_str     0x000000000006b307       0x7d /sources/glibc/src/glibc-2.37/build/libc_pic.a(strcmp-sse2-unaligned.os)
 .debug_str     0x000000000006b384       0x6c /sources/glibc/src/glibc-2.37/build/libc_pic.a(strcmp-sse4_2.os)
 .debug_str     0x000000000006b3f0      0x359 /sources/glibc/src/glibc-2.37/build/libc_pic.a(strcspn-sse4.os)
 .debug_str     0x000000000006b749       0x69 /sources/glibc/src/glibc-2.37/build/libc_pic.a(strlen-avx2.os)
 .debug_str     0x000000000006b7b2       0x6d /sources/glibc/src/glibc-2.37/build/libc_pic.a(strlen-avx2-rtm.os)
 .debug_str     0x000000000006b81f       0x69 /sources/glibc/src/glibc-2.37/build/libc_pic.a(strlen-evex.os)
 .debug_str     0x000000000006b888       0x69 /sources/glibc/src/glibc-2.37/build/libc_pic.a(strlen-sse2.os)
 .debug_str     0x000000000006b8f1       0x6a /sources/glibc/src/glibc-2.37/build/libc_pic.a(strncmp-avx2.os)
 .debug_str     0x000000000006b95b       0x6e /sources/glibc/src/glibc-2.37/build/libc_pic.a(strncmp-avx2-rtm.os)
 .debug_str     0x000000000006b9c9       0x6a /sources/glibc/src/glibc-2.37/build/libc_pic.a(strncmp-evex.os)
 .debug_str     0x000000000006ba33       0x6a /sources/glibc/src/glibc-2.37/build/libc_pic.a(strncmp-sse2.os)
 .debug_str     0x000000000006ba9d       0x6d /sources/glibc/src/glibc-2.37/build/libc_pic.a(strncmp-sse4_2.os)
 .debug_str     0x000000000006bb0a       0x6a /sources/glibc/src/glibc-2.37/build/libc_pic.a(strnlen-avx2.os)
 .debug_str     0x000000000006bb74       0x6e /sources/glibc/src/glibc-2.37/build/libc_pic.a(strnlen-avx2-rtm.os)
 .debug_str     0x000000000006bbe2       0x6b /sources/glibc/src/glibc-2.37/build/libc_pic.a(strnlen-evex.os)
 .debug_str     0x000000000006bc4d       0x6a /sources/glibc/src/glibc-2.37/build/libc_pic.a(strnlen-sse2.os)
 .debug_str     0x000000000006bcb7      0x14d /sources/glibc/src/glibc-2.37/build/libc_pic.a(varshift.os)
 .debug_str     0x000000000006be04      0x379 /sources/glibc/src/glibc-2.37/build/libc_pic.a(strcspn-generic.os)
 .debug_str     0x000000000006c17d     0x2c7d /sources/glibc/src/glibc-2.37/build/libc_pic.a(cacheinfo.os)
 .debug_str     0x000000000006edfa      0x3bc /sources/glibc/src/glibc-2.37/build/libc_pic.a(closedir.os)
 .debug_str     0x000000000006f1b6      0x42f /sources/glibc/src/glibc-2.37/build/libc_pic.a(rewinddir.os)
 .debug_str     0x000000000006f5e5      0x4b2 /sources/glibc/src/glibc-2.37/build/libc_pic.a(readdir64.os)
 .debug_str     0x000000000006fa97      0x505 /sources/glibc/src/glibc-2.37/build/libc_pic.a(fdopendir.os)
 .debug_str     0x000000000006ff9c       0x79 /sources/glibc/src/glibc-2.37/build/libc_pic.a(uname.os)
 .debug_str     0x0000000000070015      0x350 /sources/glibc/src/glibc-2.37/build/libc_pic.a(_exit.os)
 .debug_str     0x0000000000070365       0x7d /sources/glibc/src/glibc-2.37/build/libc_pic.a(getpid.os)
 .debug_str     0x00000000000703e2      0x15d /sources/glibc/src/glibc-2.37/build/libc_pic.a(environ.os)
 .debug_str     0x000000000007053f      0x273 /sources/glibc/src/glibc-2.37/build/libc_pic.a(stat64.os)
 .debug_str     0x00000000000707b2      0x27d /sources/glibc/src/glibc-2.37/build/libc_pic.a(fstat64.os)
 .debug_str     0x0000000000070a2f      0x275 /sources/glibc/src/glibc-2.37/build/libc_pic.a(lstat64.os)
 .debug_str     0x0000000000070ca4      0x495 /sources/glibc/src/glibc-2.37/build/libc_pic.a(fstatat64.os)
 .debug_str     0x0000000000071139      0x4ab /sources/glibc/src/glibc-2.37/build/libc_pic.a(openat64.os)
 .debug_str     0x00000000000715e4      0x370 /sources/glibc/src/glibc-2.37/build/libc_pic.a(lseek64.os)
 .debug_str     0x0000000000071954      0x360 /sources/glibc/src/glibc-2.37/build/libc_pic.a(access.os)
 .debug_str     0x0000000000071cb4      0x35f /sources/glibc/src/glibc-2.37/build/libc_pic.a(close_nocancel.os)
 .debug_str     0x0000000000072013      0x45d /sources/glibc/src/glibc-2.37/build/libc_pic.a(fcntl_nocancel.os)
 .debug_str     0x0000000000072470      0x402 /sources/glibc/src/glibc-2.37/build/libc_pic.a(open64_nocancel.os)
 .debug_str     0x0000000000072872      0x38b /sources/glibc/src/glibc-2.37/build/libc_pic.a(read_nocancel.os)
 .debug_str     0x0000000000072bfd      0x3b0 /sources/glibc/src/glibc-2.37/build/libc_pic.a(pread64_nocancel.os)
 .debug_str     0x0000000000072fad      0x38d /sources/glibc/src/glibc-2.37/build/libc_pic.a(write_nocancel.os)
 .debug_str     0x000000000007333a      0x3a2 /sources/glibc/src/glibc-2.37/build/libc_pic.a(mmap64.os)
 .debug_str     0x00000000000736dc       0x7c /sources/glibc/src/glibc-2.37/build/libc_pic.a(munmap.os)
 .debug_str     0x0000000000073758       0x84 /sources/glibc/src/glibc-2.37/build/libc_pic.a(mprotect.os)
 .debug_str     0x00000000000737dc      0x100 /sources/glibc/src/glibc-2.37/build/libc_pic.a(single_threaded.os)
 .debug_str     0x00000000000738dc      0x6df /sources/glibc/src/glibc-2.37/build/libc_pic.a(profil.os)
 .debug_str     0x0000000000073fbb     0x1544 /sources/glibc/src/glibc-2.37/build/libc_pic.a(prof-freq.os)
 .debug_str     0x00000000000754ff      0xa52 /sources/glibc/src/glibc-2.37/build/libc_pic.a(dl-addr-obj.os)
 .debug_str     0x0000000000075f51      0x575 /sources/glibc/src/glibc-2.37/build/libc_pic.a(sigaction.os)
 .debug_str     0x00000000000764c6      0x5bb /sources/glibc/src/glibc-2.37/build/libc_pic.a(libc_sigaction.os)
 .debug_str     0x0000000000076a81      0x76b /sources/glibc/src/glibc-2.37/build/libc_pic.a(errname.os)
 .debug_str     0x00000000000771ec     0x1997 /sources/glibc/src/glibc-2.37/build/libc_pic.a(strchrnul.os)
 .debug_str     0x0000000000078b83       0x6c /sources/glibc/src/glibc-2.37/build/libc_pic.a(strchrnul-avx2.os)
 .debug_str     0x0000000000078bef       0x70 /sources/glibc/src/glibc-2.37/build/libc_pic.a(strchrnul-avx2-rtm.os)
 .debug_str     0x0000000000078c5f       0x6c /sources/glibc/src/glibc-2.37/build/libc_pic.a(strchrnul-evex.os)
 .debug_str     0x0000000000078ccb       0x6c /sources/glibc/src/glibc-2.37/build/libc_pic.a(strchrnul-sse2.os)
 .debug_str     0x0000000000078d37      0x400 /sources/glibc/src/glibc-2.37/build/libc_pic.a(setitimer.os)
 .debug_str     0x0000000000079137      0x385 /sources/glibc/src/glibc-2.37/build/libc_pic.a(getdents64.os)

.debug_loc
 *(.debug_loc)

.debug_macinfo
 *(.debug_macinfo)

.debug_weaknames
 *(.debug_weaknames)

.debug_funcnames
 *(.debug_funcnames)

.debug_typenames
 *(.debug_typenames)

.debug_varnames
 *(.debug_varnames)

.debug_pubtypes
 *(.debug_pubtypes)

.debug_ranges
 *(.debug_ranges)

.debug_addr
 *(.debug_addr)

.debug_line_str
                0x0000000000000000    0x13408
 *(.debug_line_str)
 .debug_line_str
                0x0000000000000000     0xb460 /sources/glibc/src/glibc-2.37/build/elf/dl-allobjs.os
 .debug_line_str
                0x000000000000b460      0x1a3 /sources/glibc/src/glibc-2.37/build/libc_pic.a(check_fds.os)
 .debug_line_str
                0x000000000000b603       0xff /sources/glibc/src/glibc-2.37/build/libc_pic.a(errno.os)
 .debug_line_str
                0x000000000000b702       0x40 /sources/glibc/src/glibc-2.37/build/libc_pic.a(setjmp.os)
 .debug_line_str
                0x000000000000b742       0x43 /sources/glibc/src/glibc-2.37/build/libc_pic.a(__longjmp.os)
 .debug_line_str
                0x000000000000b785      0x146 /sources/glibc/src/glibc-2.37/build/libc_pic.a(lowlevellock.os)
 .debug_line_str
                0x000000000000b8cb      0x11b /sources/glibc/src/glibc-2.37/build/libc_pic.a(scratch_buffer_set_array_size.os)
 .debug_line_str
                0x000000000000b9e6      0x333 /sources/glibc/src/glibc-2.37/build/libc_pic.a(memchr.os)
 .debug_line_str
                0x000000000000bd19      0x335 /sources/glibc/src/glibc-2.37/build/libc_pic.a(memcmp.os)
 .debug_line_str
                0x000000000000c04e      0x336 /sources/glibc/src/glibc-2.37/build/libc_pic.a(memcpy.os)
 .debug_line_str
                0x000000000000c384      0x339 /sources/glibc/src/glibc-2.37/build/libc_pic.a(memmove.os)
 .debug_line_str
                0x000000000000c6bd      0x339 /sources/glibc/src/glibc-2.37/build/libc_pic.a(mempcpy.os)
 .debug_line_str
                0x000000000000c9f6      0x335 /sources/glibc/src/glibc-2.37/build/libc_pic.a(memset.os)
 .debug_line_str
                0x000000000000cd2b      0x33c /sources/glibc/src/glibc-2.37/build/libc_pic.a(rawmemchr.os)
 .debug_line_str
                0x000000000000d067      0x335 /sources/glibc/src/glibc-2.37/build/libc_pic.a(stpcpy.os)
 .debug_line_str
                0x000000000000d39c      0x326 /sources/glibc/src/glibc-2.37/build/libc_pic.a(strchr.os)
 .debug_line_str
                0x000000000000d6c2      0x326 /sources/glibc/src/glibc-2.37/build/libc_pic.a(strcmp.os)
 .debug_line_str
                0x000000000000d9e8      0x338 /sources/glibc/src/glibc-2.37/build/libc_pic.a(strcspn.os)
 .debug_line_str
                0x000000000000dd20       0xd1 /sources/glibc/src/glibc-2.37/build/libc_pic.a(strdup.os)
 .debug_line_str
                0x000000000000ddf1       0x93 /sources/glibc/src/glibc-2.37/build/libc_pic.a(strerrorname_np.os)
 .debug_line_str
                0x000000000000de84      0x333 /sources/glibc/src/glibc-2.37/build/libc_pic.a(strlen.os)
 .debug_line_str
                0x000000000000e1b7      0x329 /sources/glibc/src/glibc-2.37/build/libc_pic.a(strncmp.os)
 .debug_line_str
                0x000000000000e4e0      0x336 /sources/glibc/src/glibc-2.37/build/libc_pic.a(strnlen.os)
 .debug_line_str
                0x000000000000e816       0x4f /sources/glibc/src/glibc-2.37/build/libc_pic.a(memchr-avx2.os)
 .debug_line_str
                0x000000000000e865       0x4f /sources/glibc/src/glibc-2.37/build/libc_pic.a(memchr-avx2-rtm.os)
 .debug_line_str
                0x000000000000e8b4       0x4f /sources/glibc/src/glibc-2.37/build/libc_pic.a(memchr-evex.os)
 .debug_line_str
                0x000000000000e903       0x4f /sources/glibc/src/glibc-2.37/build/libc_pic.a(memchr-evex-rtm.os)
 .debug_line_str
                0x000000000000e952       0x4f /sources/glibc/src/glibc-2.37/build/libc_pic.a(memchr-sse2.os)
 .debug_line_str
                0x000000000000e9a1       0x55 /sources/glibc/src/glibc-2.37/build/libc_pic.a(memcmp-avx2-movbe.os)
 .debug_line_str
                0x000000000000e9f6       0x55 /sources/glibc/src/glibc-2.37/build/libc_pic.a(memcmp-avx2-movbe-rtm.os)
 .debug_line_str
                0x000000000000ea4b       0x55 /sources/glibc/src/glibc-2.37/build/libc_pic.a(memcmp-evex-movbe.os)
 .debug_line_str
                0x000000000000eaa0       0x4f /sources/glibc/src/glibc-2.37/build/libc_pic.a(memcmp-sse2.os)
 .debug_line_str
                0x000000000000eaef       0x5e /sources/glibc/src/glibc-2.37/build/libc_pic.a(memmove-avx-unaligned-erms.os)
 .debug_line_str
                0x000000000000eb4d       0x5e /sources/glibc/src/glibc-2.37/build/libc_pic.a(memmove-avx-unaligned-erms-rtm.os)
 .debug_line_str
                0x000000000000ebab       0x60 /sources/glibc/src/glibc-2.37/build/libc_pic.a(memmove-avx512-no-vzeroupper.os)
 .debug_line_str
                0x000000000000ec0b       0x5e /sources/glibc/src/glibc-2.37/build/libc_pic.a(memmove-avx512-unaligned-erms.os)
 .debug_line_str
                0x000000000000ec69       0x50 /sources/glibc/src/glibc-2.37/build/libc_pic.a(memmove-erms.os)
 .debug_line_str
                0x000000000000ecb9       0x5e /sources/glibc/src/glibc-2.37/build/libc_pic.a(memmove-evex-unaligned-erms.os)
 .debug_line_str
                0x000000000000ed17       0x5e /sources/glibc/src/glibc-2.37/build/libc_pic.a(memmove-sse2-unaligned-erms.os)
 .debug_line_str
                0x000000000000ed75       0x51 /sources/glibc/src/glibc-2.37/build/libc_pic.a(memmove-ssse3.os)
 .debug_line_str
                0x000000000000edc6       0x5d /sources/glibc/src/glibc-2.37/build/libc_pic.a(memset-avx2-unaligned-erms.os)
 .debug_line_str
                0x000000000000ee23       0x5d /sources/glibc/src/glibc-2.37/build/libc_pic.a(memset-avx2-unaligned-erms-rtm.os)
 .debug_line_str
                0x000000000000ee80       0x5f /sources/glibc/src/glibc-2.37/build/libc_pic.a(memset-avx512-no-vzeroupper.os)
 .debug_line_str
                0x000000000000eedf       0x5d /sources/glibc/src/glibc-2.37/build/libc_pic.a(memset-avx512-unaligned-erms.os)
 .debug_line_str
                0x000000000000ef3c       0x4f /sources/glibc/src/glibc-2.37/build/libc_pic.a(memset-erms.os)
 .debug_line_str
                0x000000000000ef8b       0x5d /sources/glibc/src/glibc-2.37/build/libc_pic.a(memset-evex-unaligned-erms.os)
 .debug_line_str
                0x000000000000efe8       0x5d /sources/glibc/src/glibc-2.37/build/libc_pic.a(memset-sse2-unaligned-erms.os)
 .debug_line_str
                0x000000000000f045       0x4f /sources/glibc/src/glibc-2.37/build/libc_pic.a(rawmemchr-avx2.os)
 .debug_line_str
                0x000000000000f094       0x4f /sources/glibc/src/glibc-2.37/build/libc_pic.a(rawmemchr-avx2-rtm.os)
 .debug_line_str
                0x000000000000f0e3       0x52 /sources/glibc/src/glibc-2.37/build/libc_pic.a(rawmemchr-evex.os)
 .debug_line_str
                0x000000000000f135       0x52 /sources/glibc/src/glibc-2.37/build/libc_pic.a(rawmemchr-evex-rtm.os)
 .debug_line_str
                0x000000000000f187       0x52 /sources/glibc/src/glibc-2.37/build/libc_pic.a(rawmemchr-sse2.os)
 .debug_line_str
                0x000000000000f1d9       0x4f /sources/glibc/src/glibc-2.37/build/libc_pic.a(stpcpy-avx2.os)
 .debug_line_str
                0x000000000000f228       0x4f /sources/glibc/src/glibc-2.37/build/libc_pic.a(stpcpy-avx2-rtm.os)
 .debug_line_str
                0x000000000000f277       0x4f /sources/glibc/src/glibc-2.37/build/libc_pic.a(stpcpy-evex.os)
 .debug_line_str
                0x000000000000f2c6       0x4f /sources/glibc/src/glibc-2.37/build/libc_pic.a(stpcpy-sse2.os)
 .debug_line_str
                0x000000000000f315       0x59 /sources/glibc/src/glibc-2.37/build/libc_pic.a(stpcpy-sse2-unaligned.os)
 .debug_line_str
                0x000000000000f36e       0x4f /sources/glibc/src/glibc-2.37/build/libc_pic.a(strchr-avx2.os)
 .debug_line_str
                0x000000000000f3bd       0x4f /sources/glibc/src/glibc-2.37/build/libc_pic.a(strchr-avx2-rtm.os)
 .debug_line_str
                0x000000000000f40c       0x4f /sources/glibc/src/glibc-2.37/build/libc_pic.a(strchr-evex.os)
 .debug_line_str
                0x000000000000f45b       0x4f /sources/glibc/src/glibc-2.37/build/libc_pic.a(strchr-sse2.os)
 .debug_line_str
                0x000000000000f4aa       0x56 /sources/glibc/src/glibc-2.37/build/libc_pic.a(strchr-sse2-no-bsf.os)
 .debug_line_str
                0x000000000000f500       0x4f /sources/glibc/src/glibc-2.37/build/libc_pic.a(strcmp-avx2.os)
 .debug_line_str
                0x000000000000f54f       0x4f /sources/glibc/src/glibc-2.37/build/libc_pic.a(strcmp-avx2-rtm.os)
 .debug_line_str
                0x000000000000f59e       0x4f /sources/glibc/src/glibc-2.37/build/libc_pic.a(strcmp-evex.os)
 .debug_line_str
                0x000000000000f5ed       0x4f /sources/glibc/src/glibc-2.37/build/libc_pic.a(strcmp-sse2.os)
 .debug_line_str
                0x000000000000f63c       0x59 /sources/glibc/src/glibc-2.37/build/libc_pic.a(strcmp-sse2-unaligned.os)
 .debug_line_str
                0x000000000000f695       0x51 /sources/glibc/src/glibc-2.37/build/libc_pic.a(strcmp-sse4_2.os)
 .debug_line_str
                0x000000000000f6e6      0x158 /sources/glibc/src/glibc-2.37/build/libc_pic.a(strcspn-sse4.os)
 .debug_line_str
                0x000000000000f83e       0x4f /sources/glibc/src/glibc-2.37/build/libc_pic.a(strlen-avx2.os)
 .debug_line_str
                0x000000000000f88d       0x4f /sources/glibc/src/glibc-2.37/build/libc_pic.a(strlen-avx2-rtm.os)
 .debug_line_str
                0x000000000000f8dc       0x4f /sources/glibc/src/glibc-2.37/build/libc_pic.a(strlen-evex.os)
 .debug_line_str
                0x000000000000f92b       0x4f /sources/glibc/src/glibc-2.37/build/libc_pic.a(strlen-sse2.os)
 .debug_line_str
                0x000000000000f97a       0x4f /sources/glibc/src/glibc-2.37/build/libc_pic.a(strncmp-avx2.os)
 .debug_line_str
                0x000000000000f9c9       0x4f /sources/glibc/src/glibc-2.37/build/libc_pic.a(strncmp-avx2-rtm.os)
 .debug_line_str
                0x000000000000fa18       0x4f /sources/glibc/src/glibc-2.37/build/libc_pic.a(strncmp-evex.os)
 .debug_line_str
                0x000000000000fa67       0x4f /sources/glibc/src/glibc-2.37/build/libc_pic.a(strncmp-sse2.os)
 .debug_line_str
                0x000000000000fab6       0x51 /sources/glibc/src/glibc-2.37/build/libc_pic.a(strncmp-sse4_2.os)
 .debug_line_str
                0x000000000000fb07       0x4f /sources/glibc/src/glibc-2.37/build/libc_pic.a(strnlen-avx2.os)
 .debug_line_str
                0x000000000000fb56       0x4f /sources/glibc/src/glibc-2.37/build/libc_pic.a(strnlen-avx2-rtm.os)
 .debug_line_str
                0x000000000000fba5       0x50 /sources/glibc/src/glibc-2.37/build/libc_pic.a(strnlen-evex.os)
 .debug_line_str
                0x000000000000fbf5       0x4f /sources/glibc/src/glibc-2.37/build/libc_pic.a(strnlen-sse2.os)
 .debug_line_str
                0x000000000000fc44       0xcf /sources/glibc/src/glibc-2.37/build/libc_pic.a(varshift.os)
 .debug_line_str
                0x000000000000fd13      0x191 /sources/glibc/src/glibc-2.37/build/libc_pic.a(strcspn-generic.os)
 .debug_line_str
                0x000000000000fea4      0x337 /sources/glibc/src/glibc-2.37/build/libc_pic.a(cacheinfo.os)
 .debug_line_str
                0x00000000000101db      0x1d5 /sources/glibc/src/glibc-2.37/build/libc_pic.a(closedir.os)
 .debug_line_str
                0x00000000000103b0      0x1c8 /sources/glibc/src/glibc-2.37/build/libc_pic.a(rewinddir.os)
 .debug_line_str
                0x0000000000010578      0x1d9 /sources/glibc/src/glibc-2.37/build/libc_pic.a(readdir64.os)
 .debug_line_str
                0x0000000000010751      0x23b /sources/glibc/src/glibc-2.37/build/libc_pic.a(fdopendir.os)
 .debug_line_str
                0x000000000001098c       0x47 /sources/glibc/src/glibc-2.37/build/libc_pic.a(uname.os)
 .debug_line_str
                0x00000000000109d3      0x11f /sources/glibc/src/glibc-2.37/build/libc_pic.a(_exit.os)
 .debug_line_str
                0x0000000000010af2       0x47 /sources/glibc/src/glibc-2.37/build/libc_pic.a(getpid.os)
 .debug_line_str
                0x0000000000010b39       0x78 /sources/glibc/src/glibc-2.37/build/libc_pic.a(environ.os)
 .debug_line_str
                0x0000000000010bb1      0x116 /sources/glibc/src/glibc-2.37/build/libc_pic.a(stat64.os)
 .debug_line_str
                0x0000000000010cc7      0x12c /sources/glibc/src/glibc-2.37/build/libc_pic.a(fstat64.os)
 .debug_line_str
                0x0000000000010df3      0x119 /sources/glibc/src/glibc-2.37/build/libc_pic.a(lstat64.os)
 .debug_line_str
                0x0000000000010f0c      0x17c /sources/glibc/src/glibc-2.37/build/libc_pic.a(fstatat64.os)
 .debug_line_str
                0x0000000000011088      0x1a6 /sources/glibc/src/glibc-2.37/build/libc_pic.a(openat64.os)
 .debug_line_str
                0x000000000001122e      0x131 /sources/glibc/src/glibc-2.37/build/libc_pic.a(lseek64.os)
 .debug_line_str
                0x000000000001135f      0x11c /sources/glibc/src/glibc-2.37/build/libc_pic.a(access.os)
 .debug_line_str
                0x000000000001147b      0x134 /sources/glibc/src/glibc-2.37/build/libc_pic.a(close_nocancel.os)
 .debug_line_str
                0x00000000000115af      0x187 /sources/glibc/src/glibc-2.37/build/libc_pic.a(fcntl_nocancel.os)
 .debug_line_str
                0x0000000000011736      0x17c /sources/glibc/src/glibc-2.37/build/libc_pic.a(open64_nocancel.os)
 .debug_line_str
                0x00000000000118b2      0x17d /sources/glibc/src/glibc-2.37/build/libc_pic.a(read_nocancel.os)
 .debug_line_str
                0x0000000000011a2f      0x186 /sources/glibc/src/glibc-2.37/build/libc_pic.a(pread64_nocancel.os)
 .debug_line_str
                0x0000000000011bb5      0x180 /sources/glibc/src/glibc-2.37/build/libc_pic.a(write_nocancel.os)
 .debug_line_str
                0x0000000000011d35      0x16c /sources/glibc/src/glibc-2.37/build/libc_pic.a(mmap64.os)
 .debug_line_str
                0x0000000000011ea1       0x46 /sources/glibc/src/glibc-2.37/build/libc_pic.a(munmap.os)
 .debug_line_str
                0x0000000000011ee7       0x46 /sources/glibc/src/glibc-2.37/build/libc_pic.a(mprotect.os)
 .debug_line_str
                0x0000000000011f2d       0xbb /sources/glibc/src/glibc-2.37/build/libc_pic.a(single_threaded.os)
 .debug_line_str
                0x0000000000011fe8      0x2c4 /sources/glibc/src/glibc-2.37/build/libc_pic.a(profil.os)
 .debug_line_str
                0x00000000000122ac      0x2eb /sources/glibc/src/glibc-2.37/build/libc_pic.a(prof-freq.os)
 .debug_line_str
                0x0000000000012597      0x1db /sources/glibc/src/glibc-2.37/build/libc_pic.a(dl-addr-obj.os)
 .debug_line_str
                0x0000000000012772      0x1cb /sources/glibc/src/glibc-2.37/build/libc_pic.a(sigaction.os)
 .debug_line_str
                0x000000000001293d      0x257 /sources/glibc/src/glibc-2.37/build/libc_pic.a(libc_sigaction.os)
 .debug_line_str
                0x0000000000012b94      0x11d /sources/glibc/src/glibc-2.37/build/libc_pic.a(errname.os)
 .debug_line_str
                0x0000000000012cb1      0x33c /sources/glibc/src/glibc-2.37/build/libc_pic.a(strchrnul.os)
 .debug_line_str
                0x0000000000012fed       0x4f /sources/glibc/src/glibc-2.37/build/libc_pic.a(strchrnul-avx2.os)
 .debug_line_str
                0x000000000001303c       0x4f /sources/glibc/src/glibc-2.37/build/libc_pic.a(strchrnul-avx2-rtm.os)
 .debug_line_str
                0x000000000001308b       0x4f /sources/glibc/src/glibc-2.37/build/libc_pic.a(strchrnul-evex.os)
 .debug_line_str
                0x00000000000130da       0x4f /sources/glibc/src/glibc-2.37/build/libc_pic.a(strchrnul-sse2.os)
 .debug_line_str
                0x0000000000013129      0x160 /sources/glibc/src/glibc-2.37/build/libc_pic.a(setitimer.os)
 .debug_line_str
                0x0000000000013289      0x17f /sources/glibc/src/glibc-2.37/build/libc_pic.a(getdents64.os)

.debug_loclists
                0x0000000000000000    0x2118b
 *(.debug_loclists)
 .debug_loclists
                0x0000000000000000    0x1f4d2 /sources/glibc/src/glibc-2.37/build/elf/dl-allobjs.os
 .debug_loclists
                0x000000000001f4d2       0xa2 /sources/glibc/src/glibc-2.37/build/libc_pic.a(check_fds.os)
 .debug_loclists
                0x000000000001f574      0x188 /sources/glibc/src/glibc-2.37/build/libc_pic.a(lowlevellock.os)
 .debug_loclists
                0x000000000001f6fc       0xe8 /sources/glibc/src/glibc-2.37/build/libc_pic.a(scratch_buffer_set_array_size.os)
 .debug_loclists
                0x000000000001f7e4       0x62 /sources/glibc/src/glibc-2.37/build/libc_pic.a(strdup.os)
 .debug_loclists
                0x000000000001f846       0x1e /sources/glibc/src/glibc-2.37/build/libc_pic.a(strerrorname_np.os)
 .debug_loclists
                0x000000000001f864      0x4cb /sources/glibc/src/glibc-2.37/build/libc_pic.a(strcspn-sse4.os)
 .debug_loclists
                0x000000000001fd2f      0x134 /sources/glibc/src/glibc-2.37/build/libc_pic.a(strcspn-generic.os)
 .debug_loclists
                0x000000000001fe63       0x70 /sources/glibc/src/glibc-2.37/build/libc_pic.a(cacheinfo.os)
 .debug_loclists
                0x000000000001fed3       0x34 /sources/glibc/src/glibc-2.37/build/libc_pic.a(closedir.os)
 .debug_loclists
                0x000000000001ff07       0xcd /sources/glibc/src/glibc-2.37/build/libc_pic.a(rewinddir.os)
 .debug_loclists
                0x000000000001ffd4      0x116 /sources/glibc/src/glibc-2.37/build/libc_pic.a(readdir64.os)
 .debug_loclists
                0x00000000000200ea       0x49 /sources/glibc/src/glibc-2.37/build/libc_pic.a(fdopendir.os)
 .debug_loclists
                0x0000000000020133       0x2b /sources/glibc/src/glibc-2.37/build/libc_pic.a(_exit.os)
 .debug_loclists
                0x000000000002015e       0x3e /sources/glibc/src/glibc-2.37/build/libc_pic.a(stat64.os)
 .debug_loclists
                0x000000000002019c       0x45 /sources/glibc/src/glibc-2.37/build/libc_pic.a(fstat64.os)
 .debug_loclists
                0x00000000000201e1       0x3e /sources/glibc/src/glibc-2.37/build/libc_pic.a(lstat64.os)
 .debug_loclists
                0x000000000002021f       0xa4 /sources/glibc/src/glibc-2.37/build/libc_pic.a(fstatat64.os)
 .debug_loclists
                0x00000000000202c3      0x27e /sources/glibc/src/glibc-2.37/build/libc_pic.a(openat64.os)
 .debug_loclists
                0x0000000000020541       0x50 /sources/glibc/src/glibc-2.37/build/libc_pic.a(lseek64.os)
 .debug_loclists
                0x0000000000020591       0x2c /sources/glibc/src/glibc-2.37/build/libc_pic.a(access.os)
 .debug_loclists
                0x00000000000205bd       0x24 /sources/glibc/src/glibc-2.37/build/libc_pic.a(close_nocancel.os)
 .debug_loclists
                0x00000000000205e1      0x1e9 /sources/glibc/src/glibc-2.37/build/libc_pic.a(fcntl_nocancel.os)
 .debug_loclists
                0x00000000000207ca      0x12a /sources/glibc/src/glibc-2.37/build/libc_pic.a(open64_nocancel.os)
 .debug_loclists
                0x00000000000208f4       0x50 /sources/glibc/src/glibc-2.37/build/libc_pic.a(read_nocancel.os)
 .debug_loclists
                0x0000000000020944       0x6e /sources/glibc/src/glibc-2.37/build/libc_pic.a(pread64_nocancel.os)
 .debug_loclists
                0x00000000000209b2       0x50 /sources/glibc/src/glibc-2.37/build/libc_pic.a(write_nocancel.os)
 .debug_loclists
                0x0000000000020a02      0x12f /sources/glibc/src/glibc-2.37/build/libc_pic.a(mmap64.os)
 .debug_loclists
                0x0000000000020b31      0x20f /sources/glibc/src/glibc-2.37/build/libc_pic.a(profil.os)
 .debug_loclists
                0x0000000000020d40      0x16b /sources/glibc/src/glibc-2.37/build/libc_pic.a(dl-addr-obj.os)
 .debug_loclists
                0x0000000000020eab       0x5f /sources/glibc/src/glibc-2.37/build/libc_pic.a(sigaction.os)
 .debug_loclists
                0x0000000000020f0a      0x104 /sources/glibc/src/glibc-2.37/build/libc_pic.a(libc_sigaction.os)
 .debug_loclists
                0x000000000002100e       0x14 /sources/glibc/src/glibc-2.37/build/libc_pic.a(errname.os)
 .debug_loclists
                0x0000000000021022       0x50 /sources/glibc/src/glibc-2.37/build/libc_pic.a(setitimer.os)
 .debug_loclists
                0x0000000000021072      0x119 /sources/glibc/src/glibc-2.37/build/libc_pic.a(getdents64.os)

.debug_macro
 *(.debug_macro)

.debug_names
 *(.debug_names)

.debug_rnglists
                0x0000000000000000     0x40dd
 *(.debug_rnglists)
 .debug_rnglists
                0x0000000000000000     0x3be2 /sources/glibc/src/glibc-2.37/build/elf/dl-allobjs.os
 .debug_rnglists
                0x0000000000003be2       0x2f /sources/glibc/src/glibc-2.37/build/libc_pic.a(lowlevellock.os)
 .debug_rnglists
                0x0000000000003c11       0x20 /sources/glibc/src/glibc-2.37/build/libc_pic.a(scratch_buffer_set_array_size.os)
 .debug_rnglists
                0x0000000000003c31       0x16 /sources/glibc/src/glibc-2.37/build/libc_pic.a(memchr.os)
 .debug_rnglists
                0x0000000000003c47       0x13 /sources/glibc/src/glibc-2.37/build/libc_pic.a(memcmp.os)
 .debug_rnglists
                0x0000000000003c5a       0x16 /sources/glibc/src/glibc-2.37/build/libc_pic.a(memcpy.os)
 .debug_rnglists
                0x0000000000003c70       0x16 /sources/glibc/src/glibc-2.37/build/libc_pic.a(memmove.os)
 .debug_rnglists
                0x0000000000003c86       0x16 /sources/glibc/src/glibc-2.37/build/libc_pic.a(mempcpy.os)
 .debug_rnglists
                0x0000000000003c9c       0x14 /sources/glibc/src/glibc-2.37/build/libc_pic.a(memset.os)
 .debug_rnglists
                0x0000000000003cb0       0x16 /sources/glibc/src/glibc-2.37/build/libc_pic.a(rawmemchr.os)
 .debug_rnglists
                0x0000000000003cc6       0x13 /sources/glibc/src/glibc-2.37/build/libc_pic.a(stpcpy.os)
 .debug_rnglists
                0x0000000000003cd9       0x16 /sources/glibc/src/glibc-2.37/build/libc_pic.a(strchr.os)
 .debug_rnglists
                0x0000000000003cef       0x17 /sources/glibc/src/glibc-2.37/build/libc_pic.a(strcmp.os)
 .debug_rnglists
                0x0000000000003d06       0x14 /sources/glibc/src/glibc-2.37/build/libc_pic.a(strlen.os)
 .debug_rnglists
                0x0000000000003d1a       0x14 /sources/glibc/src/glibc-2.37/build/libc_pic.a(strncmp.os)
 .debug_rnglists
                0x0000000000003d2e       0x14 /sources/glibc/src/glibc-2.37/build/libc_pic.a(strnlen.os)
 .debug_rnglists
                0x0000000000003d42      0x12c /sources/glibc/src/glibc-2.37/build/libc_pic.a(strcspn-sse4.os)
 .debug_rnglists
                0x0000000000003e6e       0x29 /sources/glibc/src/glibc-2.37/build/libc_pic.a(rewinddir.os)
 .debug_rnglists
                0x0000000000003e97       0x3d /sources/glibc/src/glibc-2.37/build/libc_pic.a(readdir64.os)
 .debug_rnglists
                0x0000000000003ed4       0x1a /sources/glibc/src/glibc-2.37/build/libc_pic.a(_exit.os)
 .debug_rnglists
                0x0000000000003eee       0x54 /sources/glibc/src/glibc-2.37/build/libc_pic.a(openat64.os)
 .debug_rnglists
                0x0000000000003f42       0x13 /sources/glibc/src/glibc-2.37/build/libc_pic.a(lseek64.os)
 .debug_rnglists
                0x0000000000003f55       0x13 /sources/glibc/src/glibc-2.37/build/libc_pic.a(access.os)
 .debug_rnglists
                0x0000000000003f68       0x13 /sources/glibc/src/glibc-2.37/build/libc_pic.a(close_nocancel.os)
 .debug_rnglists
                0x0000000000003f7b       0x28 /sources/glibc/src/glibc-2.37/build/libc_pic.a(fcntl_nocancel.os)
 .debug_rnglists
                0x0000000000003fa3       0x15 /sources/glibc/src/glibc-2.37/build/libc_pic.a(open64_nocancel.os)
 .debug_rnglists
                0x0000000000003fb8       0x13 /sources/glibc/src/glibc-2.37/build/libc_pic.a(read_nocancel.os)
 .debug_rnglists
                0x0000000000003fcb       0x1d /sources/glibc/src/glibc-2.37/build/libc_pic.a(pread64_nocancel.os)
 .debug_rnglists
                0x0000000000003fe8       0x13 /sources/glibc/src/glibc-2.37/build/libc_pic.a(write_nocancel.os)
 .debug_rnglists
                0x0000000000003ffb       0x1a /sources/glibc/src/glibc-2.37/build/libc_pic.a(mmap64.os)
 .debug_rnglists
                0x0000000000004015       0x18 /sources/glibc/src/glibc-2.37/build/libc_pic.a(profil.os)
 .debug_rnglists
                0x000000000000402d       0x3c /sources/glibc/src/glibc-2.37/build/libc_pic.a(libc_sigaction.os)
 .debug_rnglists
                0x0000000000004069       0x13 /sources/glibc/src/glibc-2.37/build/libc_pic.a(errname.os)
 .debug_rnglists
                0x000000000000407c       0x14 /sources/glibc/src/glibc-2.37/build/libc_pic.a(strchrnul.os)
 .debug_rnglists
                0x0000000000004090       0x13 /sources/glibc/src/glibc-2.37/build/libc_pic.a(setitimer.os)
 .debug_rnglists
                0x00000000000040a3       0x3a /sources/glibc/src/glibc-2.37/build/libc_pic.a(getdents64.os)

.debug_str_offsets
 *(.debug_str_offsets)

.debug_sup
 *(.debug_sup)

.gnu.attributes
 *(.gnu.attributes)
OUTPUT(/sources/glibc/src/glibc-2.37/build/elf/librtld.map.o elf64-x86-64)
